
all_arith0_elf64:     file format elf64-littleriscv


Disassembly of section .text:

0000000080001000 <_start>:
#include "encoding.h"

  .section ".text.init"
  .globl _start
_start:
  li  x1, 0
    80001000:	4081                	li	ra,0
  li  x2, 0
    80001002:	4101                	li	sp,0
  li  x3, 0
    80001004:	4181                	li	gp,0
  li  x4, 0
    80001006:	4201                	li	tp,0
  li  x5, 0
    80001008:	4281                	li	t0,0
  li  x6, 0
    8000100a:	4301                	li	t1,0
  li  x7, 0
    8000100c:	4381                	li	t2,0
  li  x8, 0
    8000100e:	4401                	li	s0,0
  li  x9, 0
    80001010:	4481                	li	s1,0
  li  x10,0
    80001012:	4501                	li	a0,0
  li  x11,0
    80001014:	4581                	li	a1,0
  li  x12,0
    80001016:	4601                	li	a2,0
  li  x13,0
    80001018:	4681                	li	a3,0
  li  x14,0
    8000101a:	4701                	li	a4,0
  li  x15,0
    8000101c:	4781                	li	a5,0
  li  x16,0
    8000101e:	4801                	li	a6,0
  li  x17,0
    80001020:	4881                	li	a7,0
  li  x18,0
    80001022:	4901                	li	s2,0
  li  x19,0
    80001024:	4981                	li	s3,0
  li  x20,0
    80001026:	4a01                	li	s4,0
  li  x21,0
    80001028:	4a81                	li	s5,0
  li  x22,0
    8000102a:	4b01                	li	s6,0
  li  x23,0
    8000102c:	4b81                	li	s7,0
  li  x24,0
    8000102e:	4c01                	li	s8,0
  li  x25,0
    80001030:	4c81                	li	s9,0
  li  x26,0
    80001032:	4d01                	li	s10,0
  li  x27,0
    80001034:	4d81                	li	s11,0
  li  x28,0
    80001036:	4e01                	li	t3,0
  li  x29,0
    80001038:	4e81                	li	t4,0
  li  x30,0
    8000103a:	4f01                	li	t5,0
  li  x31,0
    8000103c:	4f81                	li	t6,0

  # initialize global pointer
.option push
.option norelax
  la gp, __global_pointer$
    8000103e:	00014197          	auipc	gp,0x14
    80001042:	95218193          	addi	gp,gp,-1710 # 80014990 <__global_pointer$>
.option pop

  # assume mp program is always less than 128KB
#  la sp, _mscratchdata
  la sp, _mscratch_end
    80001046:	00014117          	auipc	sp,0x14
    8000104a:	dba10113          	addi	sp,sp,-582 # 80014e00 <_mscratch_end>
  csrw mscratch, sp
    8000104e:	34011073          	csrw	mscratch,sp
 # csrw mscratch, sp
  la sp, _sp_region_end
    80001052:	27018113          	addi	sp,gp,624 # 80014c00 <_sp_region_end>

  call main
    80001056:	1d2000ef          	jal	ra,80001228 <main>
	...

000000008000105c <nop_handle_c>:
#endif

int __attribute__((weak)) self_check();


void *nop_handle_c() {
    8000105c:	1141                	addi	sp,sp,-16
    8000105e:	e422                	sd	s0,8(sp)
    80001060:	0800                	addi	s0,sp,16

0000000080001062 <nop_handle>:
  asm volatile("nop_handle:     \n\t");
  asm volatile("nop \n\t");
    80001062:	0001                	nop
  asm volatile("csrw 0x341, ra # MEPC\n\t");
    80001064:	34109073          	csrw	mepc,ra
  asm volatile("ret  \n\t");
    80001068:	8082                	ret
}
    8000106a:	0001                	nop
    8000106c:	853e                	mv	a0,a5
    8000106e:	6422                	ld	s0,8(sp)
    80001070:	0141                	addi	sp,sp,16
    80001072:	8082                	ret

0000000080001074 <trap_handle_c>:


void *trap_handle_c(){
    80001074:	1141                	addi	sp,sp,-16
    80001076:	e422                	sd	s0,8(sp)
    80001078:	0800                	addi	s0,sp,16

000000008000107a <trap_handle>:
  static uint32_t intr_src;
#endif

  asm volatile("trap_handle:    \n\t");

  asm volatile("csrr x12, 0x342 # MCAUSE\n\t");
    8000107a:	34202673          	csrr	a2,mcause

  // interrupt mcause[31] = 1
  asm volatile("li x10, 0x80000003 \n\t");
    8000107e:	0010051b          	addiw	a0,zero,1
    80001082:	057e                	slli	a0,a0,0x1f
    80001084:	050d                	addi	a0,a0,3
  asm volatile("beq x12, x10, msw_int_handle\n\t");
    80001086:	04a60c63          	beq	a2,a0,800010de <msw_int_handle>
  asm volatile("li x10, 0x80000007 \n\t");
    8000108a:	0010051b          	addiw	a0,zero,1
    8000108e:	057e                	slli	a0,a0,0x1f
    80001090:	051d                	addi	a0,a0,7
  asm volatile("beq x12, x10, mtm_int_handle\n\t");
    80001092:	04a60863          	beq	a2,a0,800010e2 <mtm_int_handle>
  asm volatile("li x10, 0x8000000B \n\t");
    80001096:	0010051b          	addiw	a0,zero,1
    8000109a:	057e                	slli	a0,a0,0x1f
    8000109c:	052d                	addi	a0,a0,11
  asm volatile("beq x12, x10, met_int_handle\n\t");
    8000109e:	04a60463          	beq	a2,a0,800010e6 <met_int_handle>

  //ecall from machine mode
  asm volatile("li x10, 0x0000000B \n\t");
    800010a2:	452d                	li	a0,11
  asm volatile("beq x12, x10, enter_u_mode\n\t");
    800010a4:	04a60e63          	beq	a2,a0,80001100 <enter_u_mode>

  //ecall from user mode
  asm volatile("li x10, 0x00000008 \n\t");
    800010a8:	4521                	li	a0,8
  asm volatile("beq x12, x10, enter_m_mode\n\t");
    800010aa:	04a60063          	beq	a2,a0,800010ea <enter_m_mode>

  // exception mcause[31] = 0, ebreak = 3
  asm volatile("li x11, 3 \n\t");
    800010ae:	458d                	li	a1,3
  asm volatile("beq x12, x11, ebreak_handle\n\t");
    800010b0:	02b60063          	beq	a2,a1,800010d0 <ebreak_handle>

  // jump to illegal instruction
  asm volatile("li x10, 0x00000001 \n\t");
    800010b4:	4505                	li	a0,1
  asm volatile("beq x12, x10, fetch_exp_handle\n\t");
    800010b6:	00a60963          	beq	a2,a0,800010c8 <fetch_exp_handle>

00000000800010ba <exp_handle>:

  // all other exception case not list out
  asm volatile("exp_handle:     \n\t");
  asm volatile("csrr x13, 0x341 # MEPC\n\t");
    800010ba:	341026f3          	csrr	a3,mepc
  asm volatile("addi x13, x13, 4 \n\t");
    800010be:	0691                	addi	a3,a3,4
  asm volatile("csrw 0x341, x13 # MEPC\n\t");
    800010c0:	34169073          	csrw	mepc,a3
  asm volatile("jal zero, .Lmret  \n\t");
    800010c4:	0b60006f          	j	8000117a <trap_entry+0x46>

00000000800010c8 <fetch_exp_handle>:

  // We implement fetch tests using jump and link, so the place we want to
  // return to is stored in RA.
  asm volatile("fetch_exp_handle:     \n\t");
  asm volatile("csrw 0x341, ra # MEPC\n\t");
    800010c8:	34109073          	csrw	mepc,ra
  asm volatile("jal zero, .Lmret  \n\t");
    800010cc:	0ae0006f          	j	8000117a <trap_entry+0x46>

00000000800010d0 <ebreak_handle>:

  asm volatile("ebreak_handle:     \n\t");
  asm volatile("csrr x13, 0x341 # MEPC\n\t");
    800010d0:	341026f3          	csrr	a3,mepc
  asm volatile("addi x13, x13, 2 \n\t");
    800010d4:	0689                	addi	a3,a3,2
  asm volatile("csrw 0x341, x13 # MEPC\n\t");
    800010d6:	34169073          	csrw	mepc,a3
  asm volatile("jal zero, .Lmret  \n\t");
    800010da:	0a00006f          	j	8000117a <trap_entry+0x46>

00000000800010de <msw_int_handle>:
  // machine software int
  asm volatile("msw_int_handle:     \n\t");
#ifdef PYGMY_E_INTERRUPT
  read_station((uint32_t *) intr_src_addr, &intr_src);
#endif
  asm volatile("jal zero, .Lmret  \n\t");
    800010de:	09c0006f          	j	8000117a <trap_entry+0x46>

00000000800010e2 <mtm_int_handle>:
  // machine timer int
  asm volatile("mtm_int_handle:     \n\t");
#ifdef PYGMY_E_INTERRUPT
  read_station((uint32_t *) intr_src_addr, &intr_src);
#endif
  asm volatile("jal zero, .Lmret  \n\t");
    800010e2:	0980006f          	j	8000117a <trap_entry+0x46>

00000000800010e6 <met_int_handle>:
        write_station((uint32_t *) apb_slv_timer_status_addr, 0);
        break;
    }
#endif

  asm volatile("jal zero, .Lmret  \n\t");
    800010e6:	0940006f          	j	8000117a <trap_entry+0x46>

00000000800010ea <enter_m_mode>:

  // current is user mode,enter machine mode
  asm volatile("enter_m_mode:     \n\t");
  asm volatile("li x13, 3# MSTATUS\n\t");
    800010ea:	468d                	li	a3,3
  asm volatile("slli x13, x13, 11# MSTATUS\n\t");
    800010ec:	06ae                	slli	a3,a3,0xb
  asm volatile("csrs 0x300, x13# MSTATUS\n\t");
    800010ee:	3006a073          	csrs	mstatus,a3
  asm volatile("csrr x13, 0x341 # MEPC\n\t");
    800010f2:	341026f3          	csrr	a3,mepc
  asm volatile("addi x13, x13, 4 \n\t");
    800010f6:	0691                	addi	a3,a3,4
  asm volatile("csrw 0x341, x13 # MEPC\n\t");
    800010f8:	34169073          	csrw	mepc,a3
  asm volatile("jal zero, .Lmret  \n\t");
    800010fc:	07e0006f          	j	8000117a <trap_entry+0x46>

0000000080001100 <enter_u_mode>:

  // current is machine mode,enter user mode
  asm volatile("enter_u_mode:     \n\t");
  asm volatile("la x13, return_to_mmode \n\t");
    80001100:	00012697          	auipc	a3,0x12
    80001104:	69c68693          	addi	a3,a3,1692 # 8001379c <return_to_mmode>
  asm volatile("beq x13, a5, skip_enter_umode\n\t");
    80001108:	00f68663          	beq	a3,a5,80001114 <skip_enter_umode>
  asm volatile("li x13, 3# MSTATUS\n\t");
    8000110c:	468d                	li	a3,3
  asm volatile("slli x13, x13, 11 #MSTATUS\n\t");
    8000110e:	06ae                	slli	a3,a3,0xb
  asm volatile("csrc 0x300, x13 #MSTATUS\n\t");
    80001110:	3006b073          	csrc	mstatus,a3

0000000080001114 <skip_enter_umode>:
  asm volatile("skip_enter_umode:     \n\t");
  asm volatile("csrr x13, 0x341 # MEPC\n\t");
    80001114:	341026f3          	csrr	a3,mepc
  asm volatile("addi x13, x13, 4 \n\t");
    80001118:	0691                	addi	a3,a3,4
  asm volatile("csrw 0x341, x13 # MEPC\n\t");
    8000111a:	34169073          	csrw	mepc,a3
  asm volatile("jal zero, .Lmret  \n\t");
    8000111e:	05c0006f          	j	8000117a <trap_entry+0x46>

}
    80001122:	0001                	nop
    80001124:	853e                	mv	a0,a5
    80001126:	6422                	ld	s0,8(sp)
    80001128:	0141                	addi	sp,sp,16
    8000112a:	8082                	ret

000000008000112c <trap_entry_c>:


void *trap_entry_c(){
    8000112c:	1141                	addi	sp,sp,-16
    8000112e:	e422                	sd	s0,8(sp)
    80001130:	0800                	addi	s0,sp,16
    80001132:	0001                	nop

0000000080001134 <trap_entry>:
  asm volatile(".align 2\n\t trap_entry:\n\t");
  asm volatile("csrrw sp, mscratch, sp\n\t");
    80001134:	34011173          	csrrw	sp,mscratch,sp
  asm volatile(
    80001138:	7111                	addi	sp,sp,-256
    8000113a:	c406                	sw	ra,8(sp)
    8000113c:	cc0e                	sw	gp,24(sp)
    8000113e:	d012                	sw	tp,32(sp)
    80001140:	d416                	sw	t0,40(sp)
    80001142:	d81a                	sw	t1,48(sp)
    80001144:	dc1e                	sw	t2,56(sp)
    80001146:	c0a2                	sw	s0,64(sp)
    80001148:	c4a6                	sw	s1,72(sp)
    8000114a:	c8aa                	sw	a0,80(sp)
    8000114c:	ccae                	sw	a1,88(sp)
    8000114e:	d0b2                	sw	a2,96(sp)
    80001150:	d4b6                	sw	a3,104(sp)
    80001152:	d8ba                	sw	a4,112(sp)
    80001154:	dcbe                	sw	a5,120(sp)
    80001156:	c142                	sw	a6,128(sp)
    80001158:	c546                	sw	a7,136(sp)
    8000115a:	c94a                	sw	s2,144(sp)
    8000115c:	cd4e                	sw	s3,152(sp)
    8000115e:	d152                	sw	s4,160(sp)
    80001160:	d556                	sw	s5,168(sp)
    80001162:	d95a                	sw	s6,176(sp)
    80001164:	dd5e                	sw	s7,184(sp)
    80001166:	c1e2                	sw	s8,192(sp)
    80001168:	c5e6                	sw	s9,200(sp)
    8000116a:	c9ea                	sw	s10,208(sp)
    8000116c:	cdee                	sw	s11,216(sp)
    8000116e:	d1f2                	sw	t3,224(sp)
    80001170:	d5f6                	sw	t4,232(sp)
    80001172:	d9fa                	sw	t5,240(sp)
    80001174:	ddfe                	sw	t6,248(sp)
    80001176:	f05ff06f          	j	8000107a <trap_handle>
    8000117a:	40a2                	lw	ra,8(sp)
    8000117c:	41e2                	lw	gp,24(sp)
    8000117e:	5202                	lw	tp,32(sp)
    80001180:	52a2                	lw	t0,40(sp)
    80001182:	5342                	lw	t1,48(sp)
    80001184:	53e2                	lw	t2,56(sp)
    80001186:	4406                	lw	s0,64(sp)
    80001188:	44a6                	lw	s1,72(sp)
    8000118a:	4546                	lw	a0,80(sp)
    8000118c:	45e6                	lw	a1,88(sp)
    8000118e:	5606                	lw	a2,96(sp)
    80001190:	56a6                	lw	a3,104(sp)
    80001192:	5746                	lw	a4,112(sp)
    80001194:	57e6                	lw	a5,120(sp)
    80001196:	480a                	lw	a6,128(sp)
    80001198:	48aa                	lw	a7,136(sp)
    8000119a:	494a                	lw	s2,144(sp)
    8000119c:	49ea                	lw	s3,152(sp)
    8000119e:	5a0a                	lw	s4,160(sp)
    800011a0:	5aaa                	lw	s5,168(sp)
    800011a2:	5b4a                	lw	s6,176(sp)
    800011a4:	5bea                	lw	s7,184(sp)
    800011a6:	4c0e                	lw	s8,192(sp)
    800011a8:	4cae                	lw	s9,200(sp)
    800011aa:	4d4e                	lw	s10,208(sp)
    800011ac:	4dee                	lw	s11,216(sp)
    800011ae:	5e0e                	lw	t3,224(sp)
    800011b0:	5eae                	lw	t4,232(sp)
    800011b2:	5f4e                	lw	t5,240(sp)
    800011b4:	5fee                	lw	t6,248(sp)
    800011b6:	6111                	addi	sp,sp,256
    "   lw t4, 29*8(sp)   \n\t"
    "   lw t5, 30*8(sp)   \n\t"
    "   lw t6, 31*8(sp)   \n\t"
    "    addi sp, sp, 32*8\n\t"
    );
  asm volatile("csrrw sp, mscratch, sp\n\t");
    800011b8:	34011173          	csrrw	sp,mscratch,sp
  asm volatile("mret\n\t");
    800011bc:	30200073          	mret
}
    800011c0:	0001                	nop
    800011c2:	853e                	mv	a0,a5
    800011c4:	6422                	ld	s0,8(sp)
    800011c6:	0141                	addi	sp,sp,16
    800011c8:	8082                	ret

00000000800011ca <fail>:

void fail(){
    800011ca:	1141                	addi	sp,sp,-16
    800011cc:	e422                	sd	s0,8(sp)
    800011ce:	0800                	addi	s0,sp,16
  tohost = 1 | 10;      // always PASS
    800011d0:	fffff797          	auipc	a5,0xfffff
    800011d4:	e3078793          	addi	a5,a5,-464 # 80000000 <tohost>
    800011d8:	472d                	li	a4,11
    800011da:	e398                	sd	a4,0(a5)
  __sync_synchronize();
    800011dc:	0ff0000f          	fence
  while (1) {
      asm volatile ("nop \n\t");
    800011e0:	0001                	nop
    800011e2:	bffd                	j	800011e0 <fail+0x16>

00000000800011e4 <write_station>:
  }
}

void write_station(uint32_t *addr, uint32_t data){
    800011e4:	1101                	addi	sp,sp,-32
    800011e6:	ec22                	sd	s0,24(sp)
    800011e8:	1000                	addi	s0,sp,32
    800011ea:	fea43423          	sd	a0,-24(s0)
    800011ee:	87ae                	mv	a5,a1
    800011f0:	fef42223          	sw	a5,-28(s0)
    * addr = data;
    800011f4:	fe843783          	ld	a5,-24(s0)
    800011f8:	fe442703          	lw	a4,-28(s0)
    800011fc:	c398                	sw	a4,0(a5)
}
    800011fe:	0001                	nop
    80001200:	6462                	ld	s0,24(sp)
    80001202:	6105                	addi	sp,sp,32
    80001204:	8082                	ret

0000000080001206 <read_station>:
void read_station(uint32_t *addr, uint32_t *data){
    80001206:	1101                	addi	sp,sp,-32
    80001208:	ec22                	sd	s0,24(sp)
    8000120a:	1000                	addi	s0,sp,32
    8000120c:	fea43423          	sd	a0,-24(s0)
    80001210:	feb43023          	sd	a1,-32(s0)
    * data = (* addr);
    80001214:	fe843783          	ld	a5,-24(s0)
    80001218:	4398                	lw	a4,0(a5)
    8000121a:	fe043783          	ld	a5,-32(s0)
    8000121e:	c398                	sw	a4,0(a5)
}
    80001220:	0001                	nop
    80001222:	6462                	ld	s0,24(sp)
    80001224:	6105                	addi	sp,sp,32
    80001226:	8082                	ret

0000000080001228 <main>:


int main () {
    80001228:	715d                	addi	sp,sp,-80
    8000122a:	e486                	sd	ra,72(sp)
    8000122c:	e0a2                	sd	s0,64(sp)
    8000122e:	0880                	addi	s0,sp,80
  //volatile static uint16_t random_store_uint16[551];
  //volatile static int32_t random_store_int32[551];
  //volatile static uint32_t random_store_uint32[551];
  //volatile static int64_t random_store_int64[551];
  static int32_t scalar_insns  = 0;
  uint32_t sum = 0;
    80001230:	fe042423          	sw	zero,-24(s0)
  uint32_t amo_val = 0;
    80001234:	fe042223          	sw	zero,-28(s0)
  uint64_t zero_lock = 0;
    80001238:	fc043c23          	sd	zero,-40(s0)
  uint64_t one_lock = 0;
    8000123c:	fc043823          	sd	zero,-48(s0)

  // Addresses for exception
  //int64_t page_fault_addr = 0x8000f000;
  unsigned int *page_fault_addr = (unsigned long*)((char*)0+0x8000f000);
    80001240:	000807b7          	lui	a5,0x80
    80001244:	07bd                	addi	a5,a5,15
    80001246:	07b2                	slli	a5,a5,0xc
    80001248:	fcf43423          	sd	a5,-56(s0)
  *((short*)page_fault_addr) = 0x8082;
    8000124c:	fc843783          	ld	a5,-56(s0)
    80001250:	7761                	lui	a4,0xffff8
    80001252:	08270713          	addi	a4,a4,130 # ffffffffffff8082 <_end+0xffffffff7ffe31e2>
    80001256:	00e79023          	sh	a4,0(a5) # 80000 <_tbss_end+0x80000>

  int64_t misaligned_addr = 0x80000001;
    8000125a:	4785                	li	a5,1
    8000125c:	07fe                	slli	a5,a5,0x1f
    8000125e:	0785                	addi	a5,a5,1
    80001260:	fcf43023          	sd	a5,-64(s0)
  static int64_t misaligned_fetch[3] __attribute__ ((aligned(32)));
  misaligned_fetch[0] = 0x0000100000130000;
    80001264:	00014797          	auipc	a5,0x14
    80001268:	c1c78793          	addi	a5,a5,-996 # 80014e80 <misaligned_fetch.3043>
    8000126c:	10000737          	lui	a4,0x10000
    80001270:	074d                	addi	a4,a4,19
    80001272:	0742                	slli	a4,a4,0x10
    80001274:	e398                	sd	a4,0(a5)
  misaligned_fetch[1] = 0x0000001300000013;
    80001276:	00014797          	auipc	a5,0x14
    8000127a:	c0a78793          	addi	a5,a5,-1014 # 80014e80 <misaligned_fetch.3043>
    8000127e:	46cd                	li	a3,19
    80001280:	474d                	li	a4,19
    80001282:	1682                	slli	a3,a3,0x20
    80001284:	9736                	add	a4,a4,a3
    80001286:	e798                	sd	a4,8(a5)
  misaligned_fetch[2] = 0x0000001300000013;
    80001288:	00014797          	auipc	a5,0x14
    8000128c:	bf878793          	addi	a5,a5,-1032 # 80014e80 <misaligned_fetch.3043>
    80001290:	46cd                	li	a3,19
    80001292:	474d                	li	a4,19
    80001294:	1682                	slli	a3,a3,0x20
    80001296:	9736                	add	a4,a4,a3
    80001298:	eb98                	sd	a4,16(a5)
  int64_t misaligned_ptr = (int64_t)(&misaligned_fetch[0]) + 0x2;
    8000129a:	00014797          	auipc	a5,0x14
    8000129e:	be678793          	addi	a5,a5,-1050 # 80014e80 <misaligned_fetch.3043>
    800012a2:	0789                	addi	a5,a5,2
    800012a4:	faf43c23          	sd	a5,-72(s0)

00000000800012a8 <trap_vec_init>:


#include "test_data.h"

  asm volatile("trap_vec_init:     \n\t");
  asm volatile("la x13, trap_entry\n\t");
    800012a8:	00000697          	auipc	a3,0x0
    800012ac:	e8c68693          	addi	a3,a3,-372 # 80001134 <trap_entry>
  asm volatile("ori x13, x13, 0 \n\t");
    800012b0:	0006e693          	ori	a3,a3,0
  asm volatile("csrw 0x305, x13 # MTVEC \n\t");
    800012b4:	30569073          	csrw	mtvec,a3
  asm volatile(
    800012b8:	4601                	li	a2,0
    800012ba:	30461073          	csrw	mie,a2
    800012be:	4621                	li	a2,8
    800012c0:	30061073          	csrw	mstatus,a2

00000000800012c4 <nop_init>:
  }
#endif


      asm volatile("nop_init:     \n\t");
      asm volatile("la t1, nop_handle \n\t");
    800012c4:	00000317          	auipc	t1,0x0
    800012c8:	d9e30313          	addi	t1,t1,-610 # 80001062 <nop_handle>
      asm volatile("sw zero, 0(t1) \n\t");
      asm volatile("lw zero, 0(t1) \n\t");
    #else
    #endif

  int branch_counter = 1;
    800012cc:	4785                	li	a5,1
    800012ce:	faf42a23          	sw	a5,-76(s0)

00000000800012d2 <label_0_0>:
  asm volatile ("label_0_0 :\n\t"); asm volatile ("LD t2, -176 (s0)\n\t");
    800012d2:	024aefbb          	remw	t6,s5,tp

00000000800012d6 <label_0_1>:
  asm volatile ("label_0_1 :\n\t"); asm volatile ("SUBW a6, t4, a2\n\t");
    800012d6:	0390833b          	mulw	t1,ra,s9

00000000800012da <label_0_2>:
  asm volatile ("label_0_2 :\n\t"); asm volatile ("LWU t0, -448 (s0)\n\t");
    800012da:	02fe503b          	divuw	zero,t3,a5

00000000800012de <label_0_3>:
  asm volatile ("label_0_3 :\n\t"); asm volatile ("REMW s8, t0, t2\n\t");
    800012de:	03ab663b          	remw	a2,s6,s10

00000000800012e2 <label_0_4>:
  asm volatile ("label_0_4 :\n\t"); asm volatile ("LD s6, -716 (s0)\n\t");
    800012e2:	262d                	addiw	a2,a2,11

00000000800012e4 <label_0_5>:
  asm volatile ("label_0_5 :\n\t"); asm volatile ("LD a4, -496 (s0)\n\t");
    800012e4:	03e559bb          	divuw	s3,a0,t5

00000000800012e8 <label_0_6>:
  asm volatile ("label_0_6 :\n\t"); asm volatile ("LWU s5, -680 (s0)\n\t");
    800012e8:	006a8dbb          	addw	s11,s5,t1

00000000800012ec <label_0_7>:
  asm volatile ("label_0_7 :\n\t"); asm volatile ("DIVUW s6, s5, s5\n\t");
    800012ec:	03c544bb          	divw	s1,a0,t3

00000000800012f0 <label_0_8>:
  asm volatile ("label_0_8 :\n\t"); asm volatile ("C.SUBW a4, a5\n\t");
    800012f0:	415f053b          	subw	a0,t5,s5

00000000800012f4 <label_0_9>:
  asm volatile ("label_0_9 :\n\t"); asm volatile ("REMW s6, s2, a0\n\t");
    800012f4:	02c76c3b          	remw	s8,a4,a2

00000000800012f8 <label_0_10>:
  asm volatile ("label_0_10 :\n\t"); asm volatile ("LWU t1, -272 (s0)\n\t");
    800012f8:	025ecebb          	divw	t4,t4,t0

00000000800012fc <label_0_11>:
  asm volatile ("label_0_11 :\n\t"); asm volatile ("LD a6, -384 (s0)\n\t");
    800012fc:	03b9f5bb          	remuw	a1,s3,s11

0000000080001300 <label_0_12>:
  asm volatile ("label_0_12 :\n\t"); asm volatile ("SUBW a5, a3, zero\n\t");
    80001300:	03d9733b          	remuw	t1,s2,t4

0000000080001304 <label_0_13>:
  asm volatile ("label_0_13 :\n\t");   asm volatile ("label_0_14 :\n\t");   asm volatile ("label_0_15 :\n\t"); asm volatile ("LWU s11, -436 (s0)\n\t");
    80001304:	00598c9b          	addiw	s9,s3,5

0000000080001308 <label_0_14>:
  asm volatile ("label_0_16 :\n\t");   asm volatile ("label_0_17 :\n\t"); asm volatile ("LD a5, -480 (s0)\n\t");
    80001308:	01900cbb          	addw	s9,zero,s9

000000008000130c <label_0_15>:
  asm volatile ("label_0_18 :\n\t"); asm volatile ("LWU t5, -488 (s0)\n\t");
    8000130c:	03cef63b          	remuw	a2,t4,t3

0000000080001310 <label_0_16>:
  asm volatile ("label_0_19 :\n\t");   asm volatile ("label_0_20 :\n\t"); asm volatile ("REMUW t6, s5, a0\n\t");
    80001310:	01158fbb          	addw	t6,a1,a7

0000000080001314 <label_0_17>:
  asm volatile ("label_0_21 :\n\t"); asm volatile ("ADDW s6, a6, a4\n\t");
    80001314:	036d0bbb          	mulw	s7,s10,s6

0000000080001318 <label_0_18>:
  asm volatile ("label_0_22 :\n\t"); asm volatile ("REMUW s6, s9, a2\n\t");
    80001318:	033672bb          	remuw	t0,a2,s3

000000008000131c <label_0_19>:
  asm volatile ("label_0_23 :\n\t"); asm volatile ("DIVW t2, a1, s3\n\t");
    8000131c:	036ac23b          	divw	tp,s5,s6

0000000080001320 <label_0_20>:
  asm volatile ("label_0_24 :\n\t"); asm volatile ("DIVW s9, a1, tp\n\t");
    80001320:	030ddbbb          	divuw	s7,s11,a6

0000000080001324 <label_0_21>:
  asm volatile ("label_0_25 :\n\t"); asm volatile ("DIVW t0, s5, s10\n\t");
    80001324:	27a5                	addiw	a5,a5,9

0000000080001326 <label_0_22>:
  asm volatile ("label_0_26 :\n\t"); asm volatile ("DIVW a2, a3, s4\n\t");
    80001326:	01ce0d9b          	addiw	s11,t3,28

000000008000132a <label_0_23>:
  asm volatile ("label_0_27 :\n\t"); asm volatile ("LWU t2, -476 (s0)\n\t");
    8000132a:	0210c63b          	divw	a2,ra,ra

000000008000132e <label_0_24>:
  asm volatile ("label_0_28 :\n\t"); asm volatile ("C.ADDIW a0, 0x1e\n\t");
    8000132e:	410e093b          	subw	s2,t3,a6

0000000080001332 <label_0_25>:
  asm volatile ("label_0_29 :\n\t");   asm volatile ("label_0_30 :\n\t"); asm volatile ("LD t1, -208 (s0)\n\t");
    80001332:	034d5e3b          	divuw	t3,s10,s4

0000000080001336 <label_0_26>:
  asm volatile ("label_0_31 :\n\t");   asm volatile ("label_0_32 :\n\t"); asm volatile ("LD s9, -512 (s0)\n\t");
    80001336:	411f823b          	subw	tp,t6,a7

000000008000133a <label_0_27>:
  asm volatile ("label_0_33 :\n\t"); asm volatile ("LWU s9, -344 (s0)\n\t");
    8000133a:	41ed85bb          	subw	a1,s11,t5

000000008000133e <label_0_28>:
  asm volatile ("label_0_34 :\n\t"); asm volatile ("LD a4, -68 (s0)\n\t");
    8000133e:	035640bb          	divw	ra,a2,s5

0000000080001342 <label_0_29>:
  asm volatile ("label_0_35 :\n\t"); asm volatile ("MULW t1, t3, a4\n\t");
    80001342:	013a8fbb          	addw	t6,s5,s3

0000000080001346 <label_0_30>:
  asm volatile ("label_0_36 :\n\t"); asm volatile ("DIVW s9, s7, s1\n\t");
    80001346:	40ea053b          	subw	a0,s4,a4

000000008000134a <label_0_31>:
  asm volatile ("label_0_37 :\n\t"); asm volatile ("DIVW t5, s6, a3\n\t");
    8000134a:	03acd0bb          	divuw	ra,s9,s10

000000008000134e <label_0_32>:
  asm volatile ("label_0_38 :\n\t");   asm volatile ("label_0_39 :\n\t"); asm volatile ("LWU s3, -284 (s0)\n\t");
    8000134e:	0250fdbb          	remuw	s11,ra,t0

0000000080001352 <label_0_33>:
  asm volatile ("label_0_40 :\n\t"); asm volatile ("LD a0, -248 (s0)\n\t");
    80001352:	0366fd3b          	remuw	s10,a3,s6

0000000080001356 <label_0_34>:
  asm volatile ("label_0_41 :\n\t");   asm volatile ("label_0_42 :\n\t"); asm volatile ("DIVW a5, s10, s6\n\t");
    80001356:	9d89                	subw	a1,a1,a0

0000000080001358 <label_0_35>:
  asm volatile ("label_0_43 :\n\t"); asm volatile ("MULW ra, a2, s6\n\t");
    80001358:	9fa5                	addw	a5,a5,s1

000000008000135a <label_0_36>:
  asm volatile ("label_0_44 :\n\t");   asm volatile ("label_0_45 :\n\t");   asm volatile ("label_0_46 :\n\t"); asm volatile ("LD s10, -764 (s0)\n\t");
    8000135a:	9db9                	addw	a1,a1,a4

000000008000135c <label_0_37>:
  asm volatile ("label_0_47 :\n\t"); asm volatile ("C.ADDW a3, a2\n\t");
    8000135c:	02fd8f3b          	mulw	t5,s11,a5

0000000080001360 <label_0_38>:
  asm volatile ("label_0_48 :\n\t"); asm volatile ("SUBW s4, t1, a0\n\t");
    80001360:	9e8d                	subw	a3,a3,a1

0000000080001362 <label_0_39>:
  asm volatile ("label_0_49 :\n\t"); asm volatile ("REMW a7, a2, s5\n\t");
    80001362:	006a0d3b          	addw	s10,s4,t1

0000000080001366 <label_0_40>:
  asm volatile ("label_0_50 :\n\t"); asm volatile ("REMUW t2, a1, ra\n\t");
    80001366:	0363ca3b          	divw	s4,t2,s6

000000008000136a <label_0_41>:
  asm volatile ("label_0_51 :\n\t"); asm volatile ("LD a4, -708 (s0)\n\t");
    8000136a:	02c757bb          	divuw	a5,a4,a2

000000008000136e <label_0_42>:
  asm volatile ("label_0_52 :\n\t"); asm volatile ("C.SUBW a4, a4\n\t");
    8000136e:	417082bb          	subw	t0,ra,s7

0000000080001372 <label_0_43>:
  asm volatile ("label_0_53 :\n\t"); asm volatile ("LD t5, -320 (s0)\n\t");
    80001372:	40ed04bb          	subw	s1,s10,a4

0000000080001376 <label_0_44>:
  asm volatile ("label_0_54 :\n\t"); asm volatile ("LD t2, -580 (s0)\n\t");
    80001376:	41e203bb          	subw	t2,tp,t5

000000008000137a <label_0_45>:
  asm volatile ("label_0_55 :\n\t"); asm volatile ("ADDW s1, s1, s6\n\t");
    8000137a:	008e0d1b          	addiw	s10,t3,8

000000008000137e <label_0_46>:
  asm volatile ("label_0_56 :\n\t"); asm volatile ("LWU a5, -280 (s0)\n\t");
    8000137e:	03df7abb          	remuw	s5,t5,t4

0000000080001382 <label_0_47>:
  asm volatile ("label_0_57 :\n\t"); asm volatile ("C.ADDW a4, a1\n\t");
    80001382:	02f206bb          	mulw	a3,tp,a5

0000000080001386 <label_0_48>:
  asm volatile ("label_0_58 :\n\t"); asm volatile ("C.ADDIW a4, 0x19\n\t");
    80001386:	008a0b1b          	addiw	s6,s4,8

000000008000138a <label_0_49>:
  asm volatile ("label_0_59 :\n\t"); asm volatile ("LWU a4, -556 (s0)\n\t");
    8000138a:	02af0b3b          	mulw	s6,t5,a0

000000008000138e <label_0_50>:
  asm volatile ("label_0_60 :\n\t"); asm volatile ("LD s10, -732 (s0)\n\t");
    8000138e:	03c94dbb          	divw	s11,s2,t3

0000000080001392 <label_0_51>:
  asm volatile ("label_0_61 :\n\t");   asm volatile ("label_0_62 :\n\t"); asm volatile ("C.ADDIW a1, 0xf\n\t");
    80001392:	03737f3b          	remuw	t5,t1,s7

0000000080001396 <label_0_52>:
  asm volatile ("label_0_63 :\n\t"); asm volatile ("LWU a0, -616 (s0)\n\t");
    80001396:	02f4c4bb          	divw	s1,s1,a5

000000008000139a <label_0_53>:
  asm volatile ("label_0_64 :\n\t");   asm volatile ("label_0_65 :\n\t"); asm volatile ("REMW t5, s11, s6\n\t");
    8000139a:	9f19                	subw	a4,a4,a4

000000008000139c <label_0_54>:
  asm volatile ("label_0_66 :\n\t"); asm volatile ("MULW s10, s5, s9\n\t");
    8000139c:	26c9                	addiw	a3,a3,18

000000008000139e <label_0_55>:
  asm volatile ("label_0_67 :\n\t"); asm volatile ("REMUW s10, t4, t6\n\t");
    8000139e:	4180803b          	subw	zero,ra,s8

00000000800013a2 <label_0_56>:
  asm volatile ("label_0_68 :\n\t");   asm volatile ("label_0_69 :\n\t"); asm volatile ("LWU s4, -320 (s0)\n\t");
    800013a2:	014b0c3b          	addw	s8,s6,s4

00000000800013a6 <label_0_57>:
  asm volatile ("label_0_70 :\n\t"); asm volatile ("C.SUBW s1, s1\n\t");
    800013a6:	9d11                	subw	a0,a0,a2

00000000800013a8 <label_0_58>:
  asm volatile ("label_0_71 :\n\t"); asm volatile ("LWU s3, -884 (s0)\n\t");
    800013a8:	029356bb          	divuw	a3,t1,s1

00000000800013ac <label_0_59>:
  asm volatile ("label_0_72 :\n\t"); asm volatile ("C.ADDW a4, a3\n\t");
    800013ac:	03ef0d3b          	mulw	s10,t5,t5

00000000800013b0 <label_0_60>:
  asm volatile ("label_0_73 :\n\t"); asm volatile ("ADDIW a4, t1, 0x6\n\t");
    800013b0:	9d9d                	subw	a1,a1,a5

00000000800013b2 <label_0_61>:
  asm volatile ("label_0_74 :\n\t"); asm volatile ("LWU s8, -528 (s0)\n\t");
    800013b2:	260d                	addiw	a2,a2,3

00000000800013b4 <label_0_62>:
  asm volatile ("label_0_75 :\n\t"); asm volatile ("SUBW s4, a0, zero\n\t");
    800013b4:	9f8d                	subw	a5,a5,a1

00000000800013b6 <label_0_63>:
  asm volatile ("label_0_76 :\n\t"); asm volatile ("SUBW s5, t5, t3\n\t");
    800013b6:	00650e3b          	addw	t3,a0,t1

00000000800013ba <label_0_64>:
  asm volatile ("label_0_77 :\n\t"); asm volatile ("LD tp, -60 (s0)\n\t");
    800013ba:	401c0c3b          	subw	s8,s8,ra

00000000800013be <label_0_65>:
  asm volatile ("label_0_78 :\n\t"); asm volatile ("LWU a6, -340 (s0)\n\t");
    800013be:	414582bb          	subw	t0,a1,s4

00000000800013c2 <label_0_66>:
  asm volatile ("label_0_79 :\n\t"); asm volatile ("REMUW t2, s3, t0\n\t");
    800013c2:	017d8bbb          	addw	s7,s11,s7

00000000800013c6 <label_0_67>:
  asm volatile ("label_0_80 :\n\t"); asm volatile ("LD a3, -248 (s0)\n\t");
    800013c6:	0058899b          	addiw	s3,a7,5

00000000800013ca <label_0_68>:
  asm volatile ("label_0_81 :\n\t");   asm volatile ("label_0_82 :\n\t");   asm volatile ("label_0_83 :\n\t"); asm volatile ("C.ADDW a5, a0\n\t");
    800013ca:	9e1d                	subw	a2,a2,a5

00000000800013cc <label_0_69>:
  asm volatile ("label_0_84 :\n\t");   asm volatile ("label_0_85 :\n\t"); asm volatile ("LWU a5, -568 (s0)\n\t");
    800013cc:	02f37a3b          	remuw	s4,t1,a5

00000000800013d0 <label_0_70>:
  asm volatile ("label_0_86 :\n\t"); asm volatile ("DIVW s11, a7, a4\n\t");
    800013d0:	03a8efbb          	remw	t6,a7,s10

00000000800013d4 <label_0_71>:
  asm volatile ("label_0_87 :\n\t"); asm volatile ("SUBW t1, s7, t6\n\t");
    800013d4:	024585bb          	mulw	a1,a1,tp

00000000800013d8 <label_0_72>:
  asm volatile ("label_0_88 :\n\t"); asm volatile ("LD s11, -640 (s0)\n\t");
    800013d8:	2575                	addiw	a0,a0,29

00000000800013da <label_0_73>:
  asm volatile ("label_0_89 :\n\t"); asm volatile ("C.ADDW s1, a1\n\t");
    800013da:	9d05                	subw	a0,a0,s1

00000000800013dc <label_0_74>:
  asm volatile ("label_0_90 :\n\t");   asm volatile ("label_0_91 :\n\t"); asm volatile ("SUBW a4, tp, a6\n\t");
    800013dc:	26c5                	addiw	a3,a3,17

00000000800013de <label_0_75>:
  asm volatile ("label_0_92 :\n\t"); asm volatile ("ADDIW s6, a6, 0x1c\n\t");
    800013de:	411482bb          	subw	t0,s1,a7

00000000800013e2 <label_0_76>:
  asm volatile ("label_0_93 :\n\t"); asm volatile ("REMUW s4, t1, t1\n\t");
    800013e2:	027280bb          	mulw	ra,t0,t2

00000000800013e6 <label_0_77>:
  asm volatile ("label_0_94 :\n\t"); asm volatile ("REMUW s4, a7, s6\n\t");
    800013e6:	40bc0abb          	subw	s5,s8,a1

00000000800013ea <label_0_78>:
  asm volatile ("label_0_95 :\n\t"); asm volatile ("LWU a4, -536 (s0)\n\t");
    800013ea:	038dd0bb          	divuw	ra,s11,s8

00000000800013ee <label_0_79>:
  asm volatile ("label_0_96 :\n\t"); asm volatile ("ADDIW s5, t0, 0x3\n\t");
    800013ee:	9cb9                	addw	s1,s1,a4

00000000800013f0 <label_0_80>:
  asm volatile ("label_0_97 :\n\t"); asm volatile ("LWU a3, -392 (s0)\n\t");
    800013f0:	02f7fb3b          	remuw	s6,a5,a5

00000000800013f4 <label_0_81>:
  asm volatile ("label_0_98 :\n\t"); asm volatile ("C.SUBW a2, a5\n\t");
    800013f4:	01a88e9b          	addiw	t4,a7,26

00000000800013f8 <label_0_82>:
  asm volatile ("label_0_99 :\n\t"); asm volatile ("LD s8, -756 (s0)\n\t");
    800013f8:	02c94dbb          	divw	s11,s2,a2

00000000800013fc <label_0_83>:
  asm volatile ("label_0_100 :\n\t"); asm volatile ("ADDW a7, s8, s9\n\t");
    800013fc:	007a031b          	addiw	t1,s4,7

0000000080001400 <label_0_84>:
  asm volatile ("label_0_101 :\n\t"); asm volatile ("LWU s10, -204 (s0)\n\t");
    80001400:	020e5cbb          	divuw	s9,t3,zero

0000000080001404 <label_0_85>:
  asm volatile ("label_0_102 :\n\t");   asm volatile ("label_0_103 :\n\t"); asm volatile ("LWU t5, -388 (s0)\n\t");
    80001404:	02048bbb          	mulw	s7,s1,zero

0000000080001408 <label_0_86>:
  asm volatile ("label_0_104 :\n\t"); asm volatile ("LD t2, -840 (s0)\n\t");
    80001408:	24c5                	addiw	s1,s1,17

000000008000140a <label_0_87>:
  asm volatile ("label_0_105 :\n\t"); asm volatile ("REMUW t4, a6, s4\n\t");
    8000140a:	9c99                	subw	s1,s1,a4

000000008000140c <label_0_88>:
  asm volatile ("label_0_106 :\n\t"); asm volatile ("C.ADDIW a5, 0x8\n\t");
    8000140c:	02706a3b          	remw	s4,zero,t2

0000000080001410 <label_0_89>:
  asm volatile ("label_0_107 :\n\t"); asm volatile ("LWU s10, -740 (s0)\n\t");
    80001410:	414b0dbb          	subw	s11,s6,s4

0000000080001414 <label_0_90>:
  asm volatile ("label_0_108 :\n\t"); asm volatile ("DIVW s10, a1, a6\n\t");
    80001414:	03eb5c3b          	divuw	s8,s6,t5

0000000080001418 <label_0_91>:
  asm volatile ("label_0_109 :\n\t"); asm volatile ("C.SUBW a1, s1\n\t");
    80001418:	027e6cbb          	remw	s9,t3,t2

000000008000141c <label_0_92>:
  asm volatile ("label_0_110 :\n\t");   asm volatile ("label_0_111 :\n\t"); asm volatile ("LD zero, -232 (s0)\n\t");
    8000141c:	0113823b          	addw	tp,t2,a7

0000000080001420 <label_0_93>:
  asm volatile ("label_0_112 :\n\t");   asm volatile ("label_0_113 :\n\t"); asm volatile ("REMW s2, a3, t5\n\t");
    80001420:	03834d3b          	divw	s10,t1,s8

0000000080001424 <label_0_94>:
  asm volatile ("label_0_114 :\n\t");   asm volatile ("label_0_115 :\n\t"); asm volatile ("C.SUBW s1, a5\n\t");
    80001424:	406b88bb          	subw	a7,s7,t1

0000000080001428 <label_0_95>:
  asm volatile ("label_0_116 :\n\t");   asm volatile ("label_0_117 :\n\t");   asm volatile ("label_0_118 :\n\t"); asm volatile ("REMW s1, s6, a6\n\t");
    80001428:	035dd9bb          	divuw	s3,s11,s5

000000008000142c <label_0_96>:
  asm volatile ("label_0_119 :\n\t");   asm volatile ("label_0_120 :\n\t"); asm volatile ("REMUW a2, a2, t0\n\t");
    8000142c:	008e881b          	addiw	a6,t4,8

0000000080001430 <label_0_97>:
  asm volatile ("label_0_121 :\n\t"); asm volatile ("C.ADDW a0, a5\n\t");
    80001430:	02cfc4bb          	divw	s1,t6,a2

0000000080001434 <label_0_98>:
  asm volatile ("label_0_122 :\n\t"); asm volatile ("LWU t0, -764 (s0)\n\t");
    80001434:	02495bbb          	divuw	s7,s2,tp

0000000080001438 <label_0_99>:
  asm volatile ("label_0_123 :\n\t"); asm volatile ("ADDW a6, t4, s5\n\t");
    80001438:	03f2403b          	divw	zero,tp,t6

000000008000143c <label_0_100>:
  asm volatile ("label_0_124 :\n\t"); asm volatile ("LWU s10, -392 (s0)\n\t");
    8000143c:	40ae853b          	subw	a0,t4,a0

0000000080001440 <label_0_101>:
  asm volatile ("label_0_125 :\n\t");   asm volatile ("label_0_126 :\n\t"); asm volatile ("LD t0, -708 (s0)\n\t");
    80001440:	2631                	addiw	a2,a2,12

0000000080001442 <label_0_102>:
  asm volatile ("label_0_127 :\n\t");   asm volatile ("label_0_128 :\n\t"); asm volatile ("C.ADDIW a2, 0x9\n\t");
    80001442:	00dd8c1b          	addiw	s8,s11,13

0000000080001446 <label_0_103>:
  asm volatile ("label_0_129 :\n\t"); asm volatile ("C.ADDIW a4, 0x3\n\t");
    80001446:	0276edbb          	remw	s11,a3,t2

000000008000144a <label_0_104>:
  asm volatile ("label_0_130 :\n\t"); asm volatile ("SUBW t1, s9, s5\n\t");
    8000144a:	405e8f3b          	subw	t5,t4,t0

000000008000144e <label_0_105>:
  asm volatile ("label_0_131 :\n\t"); asm volatile ("C.ADDIW a2, 0x14\n\t");
    8000144e:	0295873b          	mulw	a4,a1,s1

0000000080001452 <label_0_106>:
  asm volatile ("label_0_132 :\n\t"); asm volatile ("ADDIW a0, s10, 0x9\n\t");
    80001452:	03fb4b3b          	divw	s6,s6,t6

0000000080001456 <label_0_107>:
  asm volatile ("label_0_133 :\n\t"); asm volatile ("LWU a4, -724 (s0)\n\t");
    80001456:	257d                	addiw	a0,a0,31

0000000080001458 <label_0_108>:
  asm volatile ("label_0_134 :\n\t"); asm volatile ("LWU a7, -728 (s0)\n\t");
    80001458:	0115839b          	addiw	t2,a1,17

000000008000145c <label_0_109>:
  asm volatile ("label_0_135 :\n\t"); asm volatile ("C.ADDIW a2, 0x6\n\t");
    8000145c:	0372ddbb          	divuw	s11,t0,s7

0000000080001460 <label_0_110>:
  asm volatile ("label_0_136 :\n\t"); asm volatile ("LWU s7, -556 (s0)\n\t");
    80001460:	02ef07bb          	mulw	a5,t5,a4

0000000080001464 <label_0_111>:
  asm volatile ("label_0_137 :\n\t"); asm volatile ("C.ADDW a1, a4\n\t");
    80001464:	03f3fd3b          	remuw	s10,t2,t6

0000000080001468 <label_0_112>:
  asm volatile ("label_0_138 :\n\t"); asm volatile ("MULW s5, t0, s5\n\t");
    80001468:	2645                	addiw	a2,a2,17

000000008000146a <label_0_113>:
  asm volatile ("label_0_139 :\n\t"); asm volatile ("DIVUW t5, zero, tp\n\t");
    8000146a:	40ac8d3b          	subw	s10,s9,a0

000000008000146e <label_0_114>:
  asm volatile ("label_0_140 :\n\t"); asm volatile ("ADDIW a5, a7, 0x19\n\t");
    8000146e:	9d95                	subw	a1,a1,a3

0000000080001470 <label_0_115>:
  asm volatile ("label_0_141 :\n\t"); asm volatile ("LWU t3, -524 (s0)\n\t");
    80001470:	03880bbb          	mulw	s7,a6,s8

0000000080001474 <label_0_116>:
  asm volatile ("label_0_142 :\n\t"); asm volatile ("LD zero, -572 (s0)\n\t");
    80001474:	02fc023b          	mulw	tp,s8,a5

0000000080001478 <label_0_117>:
  asm volatile ("label_0_143 :\n\t"); asm volatile ("ADDIW t1, t0, 0x2\n\t");
    80001478:	039f603b          	remw	zero,t5,s9

000000008000147c <label_0_118>:
  asm volatile ("label_0_144 :\n\t"); asm volatile ("MULW t5, s9, t0\n\t");
    8000147c:	033efa3b          	remuw	s4,t4,s3

0000000080001480 <label_0_119>:
  asm volatile ("label_0_145 :\n\t"); asm volatile ("MULW tp, a7, a7\n\t");
    80001480:	02fa7ebb          	remuw	t4,s4,a5

0000000080001484 <label_0_120>:
  asm volatile ("label_0_146 :\n\t");   asm volatile ("label_0_147 :\n\t"); asm volatile ("ADDIW a2, a0, 0xb\n\t");
    80001484:	034be73b          	remw	a4,s7,s4

0000000080001488 <label_0_121>:
  asm volatile ("label_0_148 :\n\t"); asm volatile ("LD s3, -892 (s0)\n\t");
    80001488:	016f889b          	addiw	a7,t6,22

000000008000148c <label_0_122>:
  asm volatile ("label_0_149 :\n\t"); asm volatile ("LWU a5, -648 (s0)\n\t");
    8000148c:	02068f3b          	mulw	t5,a3,zero

0000000080001490 <label_0_123>:
  asm volatile ("label_0_150 :\n\t"); asm volatile ("LWU a0, -476 (s0)\n\t");
    80001490:	02ba65bb          	remw	a1,s4,a1

0000000080001494 <label_0_124>:
  asm volatile ("label_0_151 :\n\t"); asm volatile ("REMW s4, zero, s8\n\t");
    80001494:	03a65b3b          	divuw	s6,a2,s10

0000000080001498 <label_0_125>:
  asm volatile ("label_0_152 :\n\t"); asm volatile ("LWU t5, -252 (s0)\n\t");
    80001498:	001a8bbb          	addw	s7,s5,ra

000000008000149c <label_0_126>:
  asm volatile ("label_0_153 :\n\t"); asm volatile ("LWU t0, -660 (s0)\n\t");
    8000149c:	00d0003b          	addw	zero,zero,a3

00000000800014a0 <label_0_127>:
  asm volatile ("label_0_154 :\n\t"); asm volatile ("REMUW a1, zero, a7\n\t");
    800014a0:	00158f9b          	addiw	t6,a1,1

00000000800014a4 <label_0_128>:
  asm volatile ("label_0_155 :\n\t");   asm volatile ("label_0_156 :\n\t"); asm volatile ("REMUW s2, t6, a0\n\t");
    800014a4:	2579                	addiw	a0,a0,30

00000000800014a6 <label_0_129>:
  asm volatile ("label_0_157 :\n\t"); asm volatile ("LWU s1, -88 (s0)\n\t");
    800014a6:	412c0c3b          	subw	s8,s8,s2

00000000800014aa <label_0_130>:
  asm volatile ("label_0_158 :\n\t"); asm volatile ("LWU a5, -432 (s0)\n\t");
    800014aa:	25f9                	addiw	a1,a1,30

00000000800014ac <label_0_131>:
  asm volatile ("label_0_159 :\n\t"); asm volatile ("C.ADDW a1, a3\n\t");
    800014ac:	9c9d                	subw	s1,s1,a5

00000000800014ae <label_0_132>:
  asm volatile ("label_0_160 :\n\t"); asm volatile ("LWU s10, -336 (s0)\n\t");
    800014ae:	016a0ebb          	addw	t4,s4,s6

00000000800014b2 <label_0_133>:
  asm volatile ("label_0_161 :\n\t"); asm volatile ("ADDW t6, t4, s10\n\t");
    800014b2:	038dcd3b          	divw	s10,s11,s8

00000000800014b6 <label_0_134>:
  asm volatile ("label_0_162 :\n\t");   asm volatile ("label_0_163 :\n\t"); asm volatile ("ADDIW s4, s1, 0x14\n\t");
    800014b6:	9d05                	subw	a0,a0,s1

00000000800014b8 <label_0_135>:
  asm volatile ("label_0_164 :\n\t");   asm volatile ("label_0_165 :\n\t"); asm volatile ("LD t2, -356 (s0)\n\t");
    800014b8:	03dadabb          	divuw	s5,s5,t4

00000000800014bc <label_0_136>:
  asm volatile ("label_0_166 :\n\t"); asm volatile ("LD a7, -896 (s0)\n\t");
    800014bc:	03a6fdbb          	remuw	s11,a3,s10

00000000800014c0 <label_0_137>:
  asm volatile ("label_0_167 :\n\t"); asm volatile ("REMUW zero, a2, a3\n\t");
    800014c0:	031045bb          	divw	a1,zero,a7

00000000800014c4 <label_0_138>:
  asm volatile ("label_0_168 :\n\t"); asm volatile ("MULW a4, s3, s5\n\t");
    800014c4:	24d5                	addiw	s1,s1,21

00000000800014c6 <label_0_139>:
  asm volatile ("label_0_169 :\n\t"); asm volatile ("C.ADDIW a5, 0x1b\n\t");
    800014c6:	9d89                	subw	a1,a1,a0

00000000800014c8 <label_0_140>:
  asm volatile ("label_0_170 :\n\t"); asm volatile ("C.ADDW a4, a4\n\t");
    800014c8:	251d                	addiw	a0,a0,7

00000000800014ca <label_0_141>:
  asm volatile ("label_0_171 :\n\t"); asm volatile ("LWU s3, -64 (s0)\n\t");
    800014ca:	00c60d1b          	addiw	s10,a2,12

00000000800014ce <label_0_142>:
  asm volatile ("label_0_172 :\n\t"); asm volatile ("REMUW zero, s3, s9\n\t");
    800014ce:	2595                	addiw	a1,a1,5

00000000800014d0 <label_0_143>:
  asm volatile ("label_0_173 :\n\t"); asm volatile ("C.SUBW a5, s1\n\t");
    800014d0:	03e8edbb          	remw	s11,a7,t5

00000000800014d4 <label_0_144>:
  asm volatile ("label_0_174 :\n\t"); asm volatile ("DIVUW t4, s1, zero\n\t");
    800014d4:	0342783b          	remuw	a6,tp,s4

00000000800014d8 <label_0_145>:
  asm volatile ("label_0_175 :\n\t"); asm volatile ("REMW s3, s1, s9\n\t");
    800014d8:	9e9d                	subw	a3,a3,a5

00000000800014da <label_0_146>:
  asm volatile ("label_0_176 :\n\t"); asm volatile ("ADDIW s7, ra, 0x1\n\t");
    800014da:	0240f73b          	remuw	a4,ra,tp

00000000800014de <label_0_147>:
  asm volatile ("label_0_177 :\n\t"); asm volatile ("DIVUW t1, a1, s4\n\t");
    800014de:	00a6021b          	addiw	tp,a2,10

00000000800014e2 <label_0_148>:
  asm volatile ("label_0_178 :\n\t"); asm volatile ("LWU a4, -600 (s0)\n\t");
    800014e2:	25bd                	addiw	a1,a1,15

00000000800014e4 <label_0_149>:
  asm volatile ("label_0_179 :\n\t"); asm volatile ("REMUW t4, s2, s8\n\t");
    800014e4:	0342dabb          	divuw	s5,t0,s4

00000000800014e8 <label_0_150>:
  asm volatile ("label_0_180 :\n\t"); asm volatile ("DIVUW s3, ra, t6\n\t");
    800014e8:	401c07bb          	subw	a5,s8,ra

00000000800014ec <label_0_151>:
  asm volatile ("label_0_181 :\n\t"); asm volatile ("ADDW a6, s11, zero\n\t");
    800014ec:	01248c1b          	addiw	s8,s1,18

00000000800014f0 <label_0_152>:
  asm volatile ("label_0_182 :\n\t"); asm volatile ("LD t4, -568 (s0)\n\t");
    800014f0:	02655abb          	divuw	s5,a0,t1

00000000800014f4 <label_0_153>:
  asm volatile ("label_0_183 :\n\t"); asm volatile ("LWU a2, -652 (s0)\n\t");
    800014f4:	039df4bb          	remuw	s1,s11,s9

00000000800014f8 <label_0_154>:
  asm volatile ("label_0_184 :\n\t"); asm volatile ("REMUW t5, a1, a0\n\t");
    800014f8:	9e89                	subw	a3,a3,a0

00000000800014fa <label_0_155>:
  asm volatile ("label_0_185 :\n\t"); asm volatile ("LD s2, -668 (s0)\n\t");
    800014fa:	41c8863b          	subw	a2,a7,t3

00000000800014fe <label_0_156>:
  asm volatile ("label_0_186 :\n\t"); asm volatile ("REMUW a0, a6, s4\n\t");
    800014fe:	02674e3b          	divw	t3,a4,t1

0000000080001502 <label_0_157>:
  asm volatile ("label_0_187 :\n\t"); asm volatile ("LD a6, -620 (s0)\n\t");
    80001502:	9db1                	addw	a1,a1,a2

0000000080001504 <label_0_158>:
  asm volatile ("label_0_188 :\n\t"); asm volatile ("C.ADDIW a2, 0xa\n\t");
    80001504:	00f70a1b          	addiw	s4,a4,15

0000000080001508 <label_0_159>:
  asm volatile ("label_0_189 :\n\t"); asm volatile ("LD t2, -148 (s0)\n\t");
    80001508:	26c9                	addiw	a3,a3,18

000000008000150a <label_0_160>:
  asm volatile ("label_0_190 :\n\t"); asm volatile ("LWU s1, -724 (s0)\n\t");
    8000150a:	9f39                	addw	a4,a4,a4

000000008000150c <label_0_161>:
  asm volatile ("label_0_191 :\n\t");   asm volatile ("label_0_192 :\n\t"); asm volatile ("LD s2, -604 (s0)\n\t");
    8000150c:	0295fb3b          	remuw	s6,a1,s1

0000000080001510 <label_0_162>:
  asm volatile ("label_0_193 :\n\t"); asm volatile ("LD s9, -472 (s0)\n\t");
    80001510:	0376e7bb          	remw	a5,a3,s7

0000000080001514 <label_0_163>:
  asm volatile ("label_0_194 :\n\t"); asm volatile ("LD t5, -176 (s0)\n\t");
    80001514:	0310eb3b          	remw	s6,ra,a7

0000000080001518 <label_0_164>:
  asm volatile ("label_0_195 :\n\t"); asm volatile ("LD t1, -392 (s0)\n\t");
    80001518:	9f91                	subw	a5,a5,a2

000000008000151a <label_0_165>:
  asm volatile ("label_0_196 :\n\t");   asm volatile ("label_0_197 :\n\t"); asm volatile ("SUBW a5, s2, s10\n\t");
    8000151a:	41f5073b          	subw	a4,a0,t6

000000008000151e <label_0_166>:
  asm volatile ("label_0_198 :\n\t"); asm volatile ("LWU s1, -512 (s0)\n\t");
    8000151e:	0339f8bb          	remuw	a7,s3,s3

0000000080001522 <label_0_167>:
  asm volatile ("label_0_199 :\n\t");   asm volatile ("label_0_200 :\n\t"); asm volatile ("C.ADDIW a0, 0x1f\n\t");
    80001522:	02e5f6bb          	remuw	a3,a1,a4

0000000080001526 <label_0_168>:
  asm volatile ("label_0_201 :\n\t"); asm volatile ("DIVUW tp, t0, s2\n\t");
    80001526:	029d893b          	mulw	s2,s11,s1

000000008000152a <label_0_169>:
  asm volatile ("label_0_202 :\n\t"); asm volatile ("SUBW a5, s2, s11\n\t");
    8000152a:	02e9e23b          	remw	tp,s3,a4

000000008000152e <label_0_170>:
  asm volatile ("label_0_203 :\n\t"); asm volatile ("LWU ra, -704 (s0)\n\t");
    8000152e:	9dbd                	addw	a1,a1,a5

0000000080001530 <label_0_171>:
  asm volatile ("label_0_204 :\n\t"); asm volatile ("C.ADDIW a1, 0x1a\n\t");
    80001530:	0360703b          	remuw	zero,zero,s6

0000000080001534 <label_0_172>:
  asm volatile ("label_0_205 :\n\t"); asm volatile ("ADDW t1, s11, a2\n\t");
    80001534:	00750d9b          	addiw	s11,a0,7

0000000080001538 <label_0_173>:
  asm volatile ("label_0_206 :\n\t"); asm volatile ("REMW s7, s6, a1\n\t");
    80001538:	2739                	addiw	a4,a4,14

000000008000153a <label_0_174>:
  asm volatile ("label_0_207 :\n\t");   asm volatile ("label_0_208 :\n\t"); asm volatile ("REMW a0, t2, a7\n\t");
    8000153a:	036e4cbb          	divw	s9,t3,s6

000000008000153e <label_0_175>:
  asm volatile ("label_0_209 :\n\t");   asm volatile ("label_0_210 :\n\t"); asm volatile ("LD s5, -16 (s0)\n\t");
    8000153e:	03e26abb          	remw	s5,tp,t5

0000000080001542 <label_0_176>:
  asm volatile ("label_0_211 :\n\t"); asm volatile ("C.ADDW a3, a3\n\t");
    80001542:	0394d93b          	divuw	s2,s1,s9

0000000080001546 <label_0_177>:
  asm volatile ("label_0_212 :\n\t"); asm volatile ("REMW t6, a7, s2\n\t");
    80001546:	015a831b          	addiw	t1,s5,21

000000008000154a <label_0_178>:
  asm volatile ("label_0_213 :\n\t"); asm volatile ("LD a5, -344 (s0)\n\t");
    8000154a:	034e8dbb          	mulw	s11,t4,s4

000000008000154e <label_0_179>:
  asm volatile ("label_0_214 :\n\t"); asm volatile ("C.SUBW a1, a1\n\t");
    8000154e:	9e39                	addw	a2,a2,a4

0000000080001550 <label_0_180>:
  asm volatile ("label_0_215 :\n\t"); asm volatile ("LD a7, -276 (s0)\n\t");
    80001550:	9c85                	subw	s1,s1,s1

0000000080001552 <label_0_181>:
  asm volatile ("label_0_216 :\n\t"); asm volatile ("SUBW a4, s5, ra\n\t");
    80001552:	03504dbb          	divw	s11,zero,s5

0000000080001556 <label_0_182>:
  asm volatile ("label_0_217 :\n\t"); asm volatile ("ADDIW a6, s4, 0x5\n\t");
    80001556:	020eeabb          	remw	s5,t4,zero

000000008000155a <label_0_183>:
  asm volatile ("label_0_218 :\n\t"); asm volatile ("DIVUW a2, a4, t5\n\t");
    8000155a:	27ed                	addiw	a5,a5,27

000000008000155c <label_0_184>:
  asm volatile ("label_0_219 :\n\t");   asm volatile ("label_0_220 :\n\t"); asm volatile ("C.ADDW s1, a5\n\t");
    8000155c:	02f4d9bb          	divuw	s3,s1,a5

0000000080001560 <label_0_185>:
  asm volatile ("label_0_221 :\n\t"); asm volatile ("C.SUBW s1, a3\n\t");
    80001560:	02ee4ebb          	divw	t4,t3,a4

0000000080001564 <label_0_186>:
  asm volatile ("label_0_222 :\n\t"); asm volatile ("C.SUBW a0, a1\n\t");
    80001564:	03adfe3b          	remuw	t3,s11,s10

0000000080001568 <label_0_187>:
  asm volatile ("label_0_223 :\n\t"); asm volatile ("LWU s2, -816 (s0)\n\t");
    80001568:	00870c9b          	addiw	s9,a4,8

000000008000156c <label_0_188>:
  asm volatile ("label_0_224 :\n\t");   asm volatile ("label_0_225 :\n\t"); asm volatile ("DIVW zero, s4, t0\n\t");
    8000156c:	03925a3b          	divuw	s4,tp,s9

0000000080001570 <label_0_189>:
  asm volatile ("label_0_226 :\n\t");   asm volatile ("label_0_227 :\n\t"); asm volatile ("SUBW a6, s8, s11\n\t");
    80001570:	9d9d                	subw	a1,a1,a5

0000000080001572 <label_0_190>:
  asm volatile ("label_0_228 :\n\t");   asm volatile ("label_0_229 :\n\t"); asm volatile ("DIVW s6, t4, a1\n\t");
    80001572:	03c6f83b          	remuw	a6,a3,t3

0000000080001576 <label_0_191>:
  asm volatile ("label_0_230 :\n\t"); asm volatile ("MULW s11, t1, s4\n\t");
    80001576:	0277f93b          	remuw	s2,a5,t2

000000008000157a <label_0_192>:
  asm volatile ("label_0_231 :\n\t");   asm volatile ("label_0_232 :\n\t"); asm volatile ("ADDIW a3, s9, 0x10\n\t");
    8000157a:	038b4fbb          	divw	t6,s6,s8

000000008000157e <label_0_193>:
  asm volatile ("label_0_233 :\n\t"); asm volatile ("LD s4, -92 (s0)\n\t");
    8000157e:	9ebd                	addw	a3,a3,a5

0000000080001580 <label_0_194>:
  asm volatile ("label_0_234 :\n\t"); asm volatile ("C.ADDIW a0, 0x15\n\t");
    80001580:	020dfe3b          	remuw	t3,s11,zero

0000000080001584 <label_0_195>:
  asm volatile ("label_0_235 :\n\t"); asm volatile ("C.ADDW a2, a0\n\t");
    80001584:	00d6853b          	addw	a0,a3,a3

0000000080001588 <label_0_196>:
  asm volatile ("label_0_236 :\n\t"); asm volatile ("DIVW s5, a3, tp\n\t");
    80001588:	0355ce3b          	divw	t3,a1,s5

000000008000158c <label_0_197>:
  asm volatile ("label_0_237 :\n\t"); asm volatile ("LD zero, -256 (s0)\n\t");
    8000158c:	03a0763b          	remuw	a2,zero,s10

0000000080001590 <label_0_198>:
  asm volatile ("label_0_238 :\n\t");   asm volatile ("label_0_239 :\n\t");   asm volatile ("label_0_240 :\n\t"); asm volatile ("SUBW a0, a1, t4\n\t");
    80001590:	01d7859b          	addiw	a1,a5,29

0000000080001594 <label_0_199>:
  asm volatile ("label_0_241 :\n\t"); asm volatile ("LWU a5, -396 (s0)\n\t");
    80001594:	0254d9bb          	divuw	s3,s1,t0

0000000080001598 <label_0_200>:
  asm volatile ("label_0_242 :\n\t"); asm volatile ("ADDIW t2, s5, 0x2\n\t");
    80001598:	03fc08bb          	mulw	a7,s8,t6

000000008000159c <label_0_201>:
  asm volatile ("label_0_243 :\n\t"); asm volatile ("C.ADDW a0, a2\n\t");
    8000159c:	03026ebb          	remw	t4,tp,a6

00000000800015a0 <label_0_202>:
  asm volatile ("label_0_244 :\n\t"); asm volatile ("C.SUBW a5, a0\n\t");
    800015a0:	01e2849b          	addiw	s1,t0,30

00000000800015a4 <label_0_203>:
  asm volatile ("label_0_245 :\n\t"); asm volatile ("LD a0, -380 (s0)\n\t");
    800015a4:	9e89                	subw	a3,a3,a0

00000000800015a6 <label_0_204>:
  asm volatile ("label_0_246 :\n\t");   asm volatile ("label_0_247 :\n\t"); asm volatile ("REMW t4, a3, a6\n\t");
    800015a6:	00cf8b3b          	addw	s6,t6,a2

00000000800015aa <label_0_205>:
  asm volatile ("label_0_248 :\n\t"); asm volatile ("LWU a3, -500 (s0)\n\t");
    800015aa:	9eb9                	addw	a3,a3,a4

00000000800015ac <label_0_206>:
  asm volatile ("label_0_249 :\n\t"); asm volatile ("REMUW a5, s7, a6\n\t");
    800015ac:	0050091b          	addiw	s2,zero,5

00000000800015b0 <label_0_207>:
  asm volatile ("label_0_250 :\n\t"); asm volatile ("ADDIW t1, a6, 0xb\n\t");
    800015b0:	2699                	addiw	a3,a3,6

00000000800015b2 <label_0_208>:
  asm volatile ("label_0_251 :\n\t");   asm volatile ("label_0_252 :\n\t"); asm volatile ("SUBW a4, t6, s2\n\t");
    800015b2:	9cb9                	addw	s1,s1,a4

00000000800015b4 <label_0_209>:
  asm volatile ("label_0_253 :\n\t");   asm volatile ("label_0_254 :\n\t");   asm volatile ("label_0_255 :\n\t");   asm volatile ("label_0_256 :\n\t"); asm volatile ("ADDW a0, s10, a6\n\t");
    800015b4:	9e3d                	addw	a2,a2,a5

00000000800015b6 <label_0_210>:
  asm volatile ("label_0_257 :\n\t"); asm volatile ("C.SUBW a1, a4\n\t");
    800015b6:	9ca5                	addw	s1,s1,s1

00000000800015b8 <label_0_211>:
  asm volatile ("label_0_258 :\n\t"); asm volatile ("ADDIW t3, s3, 0xd\n\t");
    800015b8:	03dac83b          	divw	a6,s5,t4

00000000800015bc <label_0_212>:
  asm volatile ("label_0_259 :\n\t"); asm volatile ("C.ADDW a1, s1\n\t");
    800015bc:	9d29                	addw	a0,a0,a0

00000000800015be <label_0_213>:
  asm volatile ("label_0_260 :\n\t"); asm volatile ("LWU t1, -332 (s0)\n\t");
    800015be:	9c95                	subw	s1,s1,a3

00000000800015c0 <label_0_214>:
  asm volatile ("label_0_261 :\n\t"); asm volatile ("REMW s9, s9, t0\n\t");
    800015c0:	03cd0c3b          	mulw	s8,s10,t3

00000000800015c4 <label_0_215>:
  asm volatile ("label_0_262 :\n\t"); asm volatile ("LD a6, -248 (s0)\n\t");
    800015c4:	027045bb          	divw	a1,zero,t2

00000000800015c8 <label_0_216>:
  asm volatile ("label_0_263 :\n\t"); asm volatile ("REMW a0, a5, tp\n\t");
    800015c8:	414a8b3b          	subw	s6,s5,s4

00000000800015cc <label_0_217>:
  asm volatile ("label_0_264 :\n\t"); asm volatile ("LD s11, -120 (s0)\n\t");
    800015cc:	9e85                	subw	a3,a3,s1

00000000800015ce <label_0_218>:
  asm volatile ("label_0_265 :\n\t"); asm volatile ("SUBW s1, t4, ra\n\t");
    800015ce:	9c8d                	subw	s1,s1,a1

00000000800015d0 <label_0_219>:
  asm volatile ("label_0_266 :\n\t"); asm volatile ("LWU t1, -432 (s0)\n\t");
    800015d0:	03e7d53b          	divuw	a0,a5,t5

00000000800015d4 <label_0_220>:
  asm volatile ("label_0_267 :\n\t"); asm volatile ("C.SUBW a4, a4\n\t");
    800015d4:	03900e3b          	mulw	t3,zero,s9

00000000800015d8 <label_0_221>:
  asm volatile ("label_0_268 :\n\t");   asm volatile ("label_0_269 :\n\t"); asm volatile ("LWU a6, -396 (s0)\n\t");
    800015d8:	007c073b          	addw	a4,s8,t2

00000000800015dc <label_0_222>:
  asm volatile ("label_0_270 :\n\t"); asm volatile ("DIVW t1, s1, a7\n\t");
    800015dc:	03a762bb          	remw	t0,a4,s10

00000000800015e0 <label_0_223>:
  asm volatile ("label_0_271 :\n\t");   asm volatile ("label_0_272 :\n\t"); asm volatile ("C.ADDIW a4, 0x15\n\t");
    800015e0:	03a6e03b          	remw	zero,a3,s10

00000000800015e4 <label_0_224>:
  asm volatile ("label_0_273 :\n\t");   asm volatile ("label_0_274 :\n\t"); asm volatile ("C.ADDW a0, a0\n\t");
    800015e4:	0123071b          	addiw	a4,t1,18

00000000800015e8 <label_0_225>:
  asm volatile ("label_0_275 :\n\t"); asm volatile ("LWU a0, -676 (s0)\n\t");
    800015e8:	03e7fc3b          	remuw	s8,a5,t5

00000000800015ec <label_0_226>:
  asm volatile ("label_0_276 :\n\t"); asm volatile ("DIVUW a1, s1, s5\n\t");
    800015ec:	2751                	addiw	a4,a4,20

00000000800015ee <label_0_227>:
  asm volatile ("label_0_277 :\n\t"); asm volatile ("LWU s8, -184 (s0)\n\t");
    800015ee:	01f8801b          	addiw	zero,a7,31

00000000800015f2 <label_0_228>:
  asm volatile ("label_0_278 :\n\t"); asm volatile ("LD t2, -100 (s0)\n\t");
    800015f2:	034c503b          	divuw	zero,s8,s4

00000000800015f6 <label_0_229>:
  asm volatile ("label_0_279 :\n\t"); asm volatile ("DIVUW t4, zero, a0\n\t");
    800015f6:	9e99                	subw	a3,a3,a4

00000000800015f8 <label_0_230>:
  asm volatile ("label_0_280 :\n\t"); asm volatile ("LD a5, -60 (s0)\n\t");
    800015f8:	03c4e33b          	remw	t1,s1,t3

00000000800015fc <label_0_231>:
  asm volatile ("label_0_281 :\n\t"); asm volatile ("LD s9, -128 (s0)\n\t");
    800015fc:	019706bb          	addw	a3,a4,s9

0000000080001600 <label_0_232>:
  asm volatile ("label_0_282 :\n\t");   asm volatile ("label_0_283 :\n\t"); asm volatile ("DIVW t5, s5, s5\n\t");
    80001600:	03197abb          	remuw	s5,s2,a7

0000000080001604 <label_0_233>:
  asm volatile ("label_0_284 :\n\t"); asm volatile ("ADDW s10, s3, a0\n\t");
    80001604:	9dad                	addw	a1,a1,a1

0000000080001606 <label_0_234>:
  asm volatile ("label_0_285 :\n\t"); asm volatile ("REMUW t5, s3, s5\n\t");
    80001606:	029d893b          	mulw	s2,s11,s1

000000008000160a <label_0_235>:
  asm volatile ("label_0_286 :\n\t"); asm volatile ("C.ADDW a4, a2\n\t");
    8000160a:	01eb0e9b          	addiw	t4,s6,30

000000008000160e <label_0_236>:
  asm volatile ("label_0_287 :\n\t"); asm volatile ("LD a0, -516 (s0)\n\t");
    8000160e:	26d1                	addiw	a3,a3,20

0000000080001610 <label_0_237>:
  asm volatile ("label_0_288 :\n\t"); asm volatile ("LD t1, -764 (s0)\n\t");
    80001610:	250d                	addiw	a0,a0,3

0000000080001612 <label_0_238>:
  asm volatile ("label_0_289 :\n\t"); asm volatile ("LD s4, -216 (s0)\n\t");
    80001612:	015487bb          	addw	a5,s1,s5

0000000080001616 <label_0_239>:
  asm volatile ("label_0_290 :\n\t"); asm volatile ("LWU t2, -576 (s0)\n\t");
    80001616:	03a2683b          	remw	a6,tp,s10

000000008000161a <label_0_240>:
  asm volatile ("label_0_291 :\n\t"); asm volatile ("SUBW tp, s7, t0\n\t");
    8000161a:	0260583b          	divuw	a6,zero,t1

000000008000161e <label_0_241>:
  asm volatile ("label_0_292 :\n\t"); asm volatile ("LWU t4, -332 (s0)\n\t");
    8000161e:	03bade3b          	divuw	t3,s5,s11

0000000080001622 <label_0_242>:
  asm volatile ("label_0_293 :\n\t"); asm volatile ("ADDIW a7, a5, 0x19\n\t");
    80001622:	009806bb          	addw	a3,a6,s1

0000000080001626 <label_0_243>:
  asm volatile ("label_0_294 :\n\t"); asm volatile ("C.ADDIW a3, 0x4\n\t");
    80001626:	03366abb          	remw	s5,a2,s3

000000008000162a <label_0_244>:
  asm volatile ("label_0_295 :\n\t"); asm volatile ("LWU s7, -256 (s0)\n\t");
    8000162a:	0219003b          	mulw	zero,s2,ra

000000008000162e <label_0_245>:
  asm volatile ("label_0_296 :\n\t"); asm volatile ("LWU tp, -188 (s0)\n\t");
    8000162e:	2569                	addiw	a0,a0,26

0000000080001630 <label_0_246>:
  asm volatile ("label_0_297 :\n\t");   asm volatile ("label_0_298 :\n\t"); asm volatile ("REMW s3, a2, t3\n\t");
    80001630:	0298efbb          	remw	t6,a7,s1

0000000080001634 <label_0_247>:
  asm volatile ("label_0_299 :\n\t"); asm volatile ("LWU a4, -432 (s0)\n\t");
    80001634:	0354e93b          	remw	s2,s1,s5

0000000080001638 <label_0_248>:
  asm volatile ("label_0_300 :\n\t"); asm volatile ("C.ADDIW a1, 0x1\n\t");
    80001638:	9fa5                	addw	a5,a5,s1

000000008000163a <label_0_249>:
  asm volatile ("label_0_301 :\n\t");   asm volatile ("label_0_302 :\n\t"); asm volatile ("LWU a6, -348 (s0)\n\t");
    8000163a:	00d9833b          	addw	t1,s3,a3

000000008000163e <label_0_250>:
  asm volatile ("label_0_303 :\n\t"); asm volatile ("ADDIW t4, tp, 0x4\n\t");
    8000163e:	0263fcbb          	remuw	s9,t2,t1

0000000080001642 <label_0_251>:
  asm volatile ("label_0_304 :\n\t"); asm volatile ("C.ADDW a5, a5\n\t");
    80001642:	01560c3b          	addw	s8,a2,s5

0000000080001646 <label_0_252>:
  asm volatile ("label_0_305 :\n\t"); asm volatile ("LWU a4, -108 (s0)\n\t");
    80001646:	03558c3b          	mulw	s8,a1,s5

000000008000164a <label_0_253>:
  asm volatile ("label_0_306 :\n\t"); asm volatile ("REMUW s8, t5, a0\n\t");
    8000164a:	9e1d                	subw	a2,a2,a5

000000008000164c <label_0_254>:
  asm volatile ("label_0_307 :\n\t"); asm volatile ("MULW a1, s5, s4\n\t");
    8000164c:	02b96f3b          	remw	t5,s2,a1

0000000080001650 <label_0_255>:
  asm volatile ("label_0_308 :\n\t"); asm volatile ("LD s8, -888 (s0)\n\t");
    80001650:	9f39                	addw	a4,a4,a4

0000000080001652 <label_0_256>:
  asm volatile ("label_0_309 :\n\t"); asm volatile ("C.ADDW a4, a2\n\t");
    80001652:	03bce53b          	remw	a0,s9,s11

0000000080001656 <label_0_257>:
  asm volatile ("label_0_310 :\n\t"); asm volatile ("C.ADDW a2, a0\n\t");
    80001656:	0079003b          	addw	zero,s2,t2

000000008000165a <label_0_258>:
  asm volatile ("label_0_311 :\n\t"); asm volatile ("DIVUW s9, s3, s7\n\t");
    8000165a:	9c95                	subw	s1,s1,a3

000000008000165c <label_0_259>:
  asm volatile ("label_0_312 :\n\t"); asm volatile ("SUBW zero, s11, a5\n\t");
    8000165c:	2ce9                	addiw	s9,s9,26

000000008000165e <label_0_260>:
  asm volatile ("label_0_313 :\n\t"); asm volatile ("C.ADDIW a3, 0x1b\n\t");
    8000165e:	038c6c3b          	remw	s8,s8,s8

0000000080001662 <label_0_261>:
  asm volatile ("label_0_314 :\n\t"); asm volatile ("LWU s3, -316 (s0)\n\t");
    80001662:	40f80abb          	subw	s5,a6,a5

0000000080001666 <label_0_262>:
  asm volatile ("label_0_315 :\n\t"); asm volatile ("LWU t1, -572 (s0)\n\t");
    80001666:	26a9                	addiw	a3,a3,10

0000000080001668 <label_0_263>:
  asm volatile ("label_0_316 :\n\t");   asm volatile ("label_0_317 :\n\t"); asm volatile ("C.SUBW a3, a4\n\t");
    80001668:	03b5e6bb          	remw	a3,a1,s11

000000008000166c <label_0_264>:
  asm volatile ("label_0_318 :\n\t"); asm volatile ("LWU t0, -92 (s0)\n\t");
    8000166c:	020f553b          	divuw	a0,t5,zero

0000000080001670 <label_0_265>:
  asm volatile ("label_0_319 :\n\t"); asm volatile ("LD a6, -28 (s0)\n\t");
    80001670:	00a08b3b          	addw	s6,ra,a0

0000000080001674 <label_0_266>:
  asm volatile ("label_0_320 :\n\t"); asm volatile ("LWU a3, -280 (s0)\n\t");
    80001674:	0367423b          	divw	tp,a4,s6

0000000080001678 <label_0_267>:
  asm volatile ("label_0_321 :\n\t");   asm volatile ("label_0_322 :\n\t"); asm volatile ("ADDIW s4, t0, 0x1f\n\t");
    80001678:	03ca553b          	divuw	a0,s4,t3

000000008000167c <label_0_268>:
  asm volatile ("label_0_323 :\n\t"); asm volatile ("MULW s5, a2, a4\n\t");
    8000167c:	02e3d93b          	divuw	s2,t2,a4

0000000080001680 <label_0_269>:
  asm volatile ("label_0_324 :\n\t"); asm volatile ("LWU a4, -848 (s0)\n\t");
    80001680:	0208d5bb          	divuw	a1,a7,zero

0000000080001684 <label_0_270>:
  asm volatile ("label_0_325 :\n\t"); asm volatile ("LWU a5, -764 (s0)\n\t");
    80001684:	03927a3b          	remuw	s4,tp,s9

0000000080001688 <label_0_271>:
  asm volatile ("label_0_326 :\n\t"); asm volatile ("ADDW a7, a3, a7\n\t");
    80001688:	9da9                	addw	a1,a1,a0

000000008000168a <label_0_272>:
  asm volatile ("label_0_327 :\n\t"); asm volatile ("LWU s10, -312 (s0)\n\t");
    8000168a:	9d3d                	addw	a0,a0,a5

000000008000168c <label_0_273>:
  asm volatile ("label_0_328 :\n\t"); asm volatile ("LWU a7, -412 (s0)\n\t");
    8000168c:	0209debb          	divuw	t4,s3,zero

0000000080001690 <label_0_274>:
  asm volatile ("label_0_329 :\n\t"); asm volatile ("REMW a0, t0, t6\n\t");
    80001690:	9d9d                	subw	a1,a1,a5

0000000080001692 <label_0_275>:
  asm volatile ("label_0_330 :\n\t"); asm volatile ("LD s5, -496 (s0)\n\t");
    80001692:	01fc0f9b          	addiw	t6,s8,31

0000000080001696 <label_0_276>:
  asm volatile ("label_0_331 :\n\t"); asm volatile ("LD s11, -688 (s0)\n\t");
    80001696:	009d801b          	addiw	zero,s11,9

000000008000169a <label_0_277>:
  asm volatile ("label_0_332 :\n\t"); asm volatile ("LWU a2, -236 (s0)\n\t");
    8000169a:	0330e03b          	remw	zero,ra,s3

000000008000169e <label_0_278>:
  asm volatile ("label_0_333 :\n\t"); asm volatile ("ADDW a7, a5, s10\n\t");
    8000169e:	9c85                	subw	s1,s1,s1

00000000800016a0 <label_0_279>:
  asm volatile ("label_0_334 :\n\t"); asm volatile ("C.ADDIW a1, 0x10\n\t");
    800016a0:	40fe083b          	subw	a6,t3,a5

00000000800016a4 <label_0_280>:
  asm volatile ("label_0_335 :\n\t");   asm volatile ("label_0_336 :\n\t"); asm volatile ("ADDW s9, s7, tp\n\t");
    800016a4:	9e9d                	subw	a3,a3,a5

00000000800016a6 <label_0_281>:
  asm volatile ("label_0_337 :\n\t");   asm volatile ("label_0_338 :\n\t"); asm volatile ("LWU a3, -844 (s0)\n\t");
    800016a6:	00eb053b          	addw	a0,s6,a4

00000000800016aa <label_0_282>:
  asm volatile ("label_0_339 :\n\t"); asm volatile ("LWU a7, -444 (s0)\n\t");
    800016aa:	026cda3b          	divuw	s4,s9,t1

00000000800016ae <label_0_283>:
  asm volatile ("label_0_340 :\n\t"); asm volatile ("LWU a0, -804 (s0)\n\t");
    800016ae:	03657a3b          	remuw	s4,a0,s6

00000000800016b2 <label_0_284>:
  asm volatile ("label_0_341 :\n\t"); asm volatile ("C.ADDW a2, a0\n\t");
    800016b2:	2685                	addiw	a3,a3,1

00000000800016b4 <label_0_285>:
  asm volatile ("label_0_342 :\n\t"); asm volatile ("REMW t0, a3, a4\n\t");
    800016b4:	9c85                	subw	s1,s1,s1

00000000800016b6 <label_0_286>:
  asm volatile ("label_0_343 :\n\t");   asm volatile ("label_0_344 :\n\t");   asm volatile ("label_0_345 :\n\t");   asm volatile ("label_0_346 :\n\t");   asm volatile ("label_0_347 :\n\t");   asm volatile ("label_0_348 :\n\t"); asm volatile ("LD s11, -488 (s0)\n\t");
    800016b6:	9c9d                	subw	s1,s1,a5

00000000800016b8 <label_0_287>:
  asm volatile ("label_0_349 :\n\t"); asm volatile ("LWU t1, -164 (s0)\n\t");
    800016b8:	2715                	addiw	a4,a4,5

00000000800016ba <label_0_288>:
  asm volatile ("label_0_350 :\n\t");   asm volatile ("label_0_351 :\n\t"); asm volatile ("SUBW tp, a6, s10\n\t");
    800016ba:	9c89                	subw	s1,s1,a0

00000000800016bc <label_0_289>:
  asm volatile ("label_0_352 :\n\t"); asm volatile ("LWU a4, -384 (s0)\n\t");
    800016bc:	9f35                	addw	a4,a4,a3

00000000800016be <label_0_290>:
  asm volatile ("label_0_353 :\n\t"); asm volatile ("C.ADDIW a3, 0x16\n\t");
    800016be:	02e06e3b          	remw	t3,zero,a4

00000000800016c2 <label_0_291>:
  asm volatile ("label_0_354 :\n\t"); asm volatile ("LD s3, -580 (s0)\n\t");
    800016c2:	41330d3b          	subw	s10,t1,s3

00000000800016c6 <label_0_292>:
  asm volatile ("label_0_355 :\n\t");   asm volatile ("label_0_356 :\n\t"); asm volatile ("LD a5, -288 (s0)\n\t");
    800016c6:	9f2d                	addw	a4,a4,a1

00000000800016c8 <label_0_293>:
  asm volatile ("label_0_357 :\n\t"); asm volatile ("LWU t3, -452 (s0)\n\t");
    800016c8:	9d39                	addw	a0,a0,a4

00000000800016ca <label_0_294>:
  asm volatile ("label_0_358 :\n\t"); asm volatile ("LWU s10, -240 (s0)\n\t");
    800016ca:	03ba403b          	divw	zero,s4,s11

00000000800016ce <label_0_295>:
  asm volatile ("label_0_359 :\n\t"); asm volatile ("LWU t0, -704 (s0)\n\t");
    800016ce:	027a4d3b          	divw	s10,s4,t2

00000000800016d2 <label_0_296>:
  asm volatile ("label_0_360 :\n\t"); asm volatile ("DIVUW a4, t4, s1\n\t");
    800016d2:	26d5                	addiw	a3,a3,21

00000000800016d4 <label_0_297>:
  asm volatile ("label_0_361 :\n\t");   asm volatile ("label_0_362 :\n\t"); asm volatile ("MULW a7, t3, t1\n\t");
    800016d4:	9fa9                	addw	a5,a5,a0

00000000800016d6 <label_0_298>:
  asm volatile ("label_0_363 :\n\t"); asm volatile ("C.ADDW a5, a3\n\t");
    800016d6:	9e11                	subw	a2,a2,a2

00000000800016d8 <label_0_299>:
  asm volatile ("label_0_364 :\n\t"); asm volatile ("SUBW t4, t2, t4\n\t");
    800016d8:	2541                	addiw	a0,a0,16

00000000800016da <label_0_300>:
  asm volatile ("label_0_365 :\n\t");   asm volatile ("label_0_366 :\n\t"); asm volatile ("REMUW s3, a2, zero\n\t");
    800016da:	01dd893b          	addw	s2,s11,t4

00000000800016de <label_0_301>:
  asm volatile ("label_0_367 :\n\t"); asm volatile ("DIVUW t2, t1, s1\n\t");
    800016de:	9da9                	addw	a1,a1,a0

00000000800016e0 <label_0_302>:
  asm volatile ("label_0_368 :\n\t"); asm volatile ("LWU a3, -212 (s0)\n\t");
    800016e0:	03ca78bb          	remuw	a7,s4,t3

00000000800016e4 <label_0_303>:
  asm volatile ("label_0_369 :\n\t"); asm volatile ("SUBW s5, s10, a6\n\t");
    800016e4:	9e89                	subw	a3,a3,a0

00000000800016e6 <label_0_304>:
  asm volatile ("label_0_370 :\n\t"); asm volatile ("ADDW a5, a5, s8\n\t");
    800016e6:	9e25                	addw	a2,a2,s1

00000000800016e8 <label_0_305>:
  asm volatile ("label_0_371 :\n\t"); asm volatile ("DIVUW tp, zero, s1\n\t");
    800016e8:	0050001b          	addiw	zero,zero,5

00000000800016ec <label_0_306>:
  asm volatile ("label_0_372 :\n\t"); asm volatile ("LD s2, -472 (s0)\n\t");
    800016ec:	41f902bb          	subw	t0,s2,t6

00000000800016f0 <label_0_307>:
  asm volatile ("label_0_373 :\n\t"); asm volatile ("ADDW s1, s10, s5\n\t");
    800016f0:	03da883b          	mulw	a6,s5,t4

00000000800016f4 <label_0_308>:
  asm volatile ("label_0_374 :\n\t");   asm volatile ("label_0_375 :\n\t"); asm volatile ("LWU s11, -468 (s0)\n\t");
    800016f4:	02654fbb          	divw	t6,a0,t1

00000000800016f8 <label_0_309>:
  asm volatile ("label_0_376 :\n\t"); asm volatile ("LD a6, -892 (s0)\n\t");
    800016f8:	02d2e8bb          	remw	a7,t0,a3

00000000800016fc <label_0_310>:
  asm volatile ("label_0_377 :\n\t"); asm volatile ("DIVUW a5, tp, s3\n\t");
    800016fc:	00e3053b          	addw	a0,t1,a4

0000000080001700 <label_0_311>:
  asm volatile ("label_0_378 :\n\t"); asm volatile ("LD t5, -900 (s0)\n\t");
    80001700:	03eecb3b          	divw	s6,t4,t5

0000000080001704 <label_0_312>:
  asm volatile ("label_0_379 :\n\t");   asm volatile ("label_0_380 :\n\t"); asm volatile ("REMW a6, t1, s9\n\t");
    80001704:	254d                	addiw	a0,a0,19

0000000080001706 <label_0_313>:
  asm volatile ("label_0_381 :\n\t"); asm volatile ("LWU a4, -136 (s0)\n\t");
    80001706:	020866bb          	remw	a3,a6,zero

000000008000170a <label_0_314>:
  asm volatile ("label_0_382 :\n\t"); asm volatile ("C.ADDIW a0, 0x14\n\t");
    8000170a:	25a9                	addiw	a1,a1,10

000000008000170c <label_0_315>:
  asm volatile ("label_0_383 :\n\t"); asm volatile ("LWU ra, -592 (s0)\n\t");
    8000170c:	03f3e03b          	remw	zero,t2,t6

0000000080001710 <label_0_316>:
  asm volatile ("label_0_384 :\n\t"); asm volatile ("DIVUW a3, s2, t0\n\t");
    80001710:	9eb5                	addw	a3,a3,a3

0000000080001712 <label_0_317>:
  asm volatile ("label_0_385 :\n\t"); asm volatile ("REMW s3, s7, t0\n\t");
    80001712:	00c48d1b          	addiw	s10,s1,12

0000000080001716 <label_0_318>:
  asm volatile ("label_0_386 :\n\t");   asm volatile ("label_0_387 :\n\t"); asm volatile ("C.SUBW a0, a1\n\t");
    80001716:	9f1d                	subw	a4,a4,a5

0000000080001718 <label_0_319>:
  asm volatile ("label_0_388 :\n\t"); asm volatile ("LWU s10, -796 (s0)\n\t");
    80001718:	02188f3b          	mulw	t5,a7,ra

000000008000171c <label_0_320>:
  asm volatile ("label_0_389 :\n\t"); asm volatile ("SUBW t5, tp, s2\n\t");
    8000171c:	03ba6f3b          	remw	t5,s4,s11

0000000080001720 <label_0_321>:
  asm volatile ("label_0_390 :\n\t");   asm volatile ("label_0_391 :\n\t"); asm volatile ("LD s3, -396 (s0)\n\t");
    80001720:	018f83bb          	addw	t2,t6,s8

0000000080001724 <label_0_322>:
  asm volatile ("label_0_392 :\n\t"); asm volatile ("LD s8, -180 (s0)\n\t");
    80001724:	03f9ec3b          	remw	s8,s3,t6

0000000080001728 <label_0_323>:
  asm volatile ("label_0_393 :\n\t"); asm volatile ("REMW zero, a0, t4\n\t");
    80001728:	03e96fbb          	remw	t6,s2,t5

000000008000172c <label_0_324>:
  asm volatile ("label_0_394 :\n\t"); asm volatile ("SUBW s4, ra, a3\n\t");
    8000172c:	002d071b          	addiw	a4,s10,2

0000000080001730 <label_0_325>:
  asm volatile ("label_0_395 :\n\t"); asm volatile ("C.SUBW a1, a4\n\t");
    80001730:	03556fbb          	remw	t6,a0,s5

0000000080001734 <label_0_326>:
  asm volatile ("label_0_396 :\n\t"); asm volatile ("C.SUBW a0, a3\n\t");
    80001734:	0370593b          	divuw	s2,zero,s7

0000000080001738 <label_0_327>:
  asm volatile ("label_0_397 :\n\t"); asm volatile ("ADDW t1, a5, s10\n\t");
    80001738:	03d5403b          	divw	zero,a0,t4

000000008000173c <label_0_328>:
  asm volatile ("label_0_398 :\n\t"); asm volatile ("C.SUBW s1, a2\n\t");
    8000173c:	00ce8f1b          	addiw	t5,t4,12

0000000080001740 <label_0_329>:
  asm volatile ("label_0_399 :\n\t"); asm volatile ("LWU zero, -32 (s0)\n\t");
    80001740:	2501                	sext.w	a0,a0

0000000080001742 <label_0_330>:
  asm volatile ("label_0_400 :\n\t"); asm volatile ("REMW s2, t3, s5\n\t");
    80001742:	27dd                	addiw	a5,a5,23

0000000080001744 <label_0_331>:
  asm volatile ("label_0_401 :\n\t"); asm volatile ("LD s5, -436 (s0)\n\t");
    80001744:	021f7bbb          	remuw	s7,t5,ra

0000000080001748 <label_0_332>:
  asm volatile ("label_0_402 :\n\t"); asm volatile ("LWU s1, -256 (s0)\n\t");
    80001748:	9d19                	subw	a0,a0,a4

000000008000174a <label_0_333>:
  asm volatile ("label_0_403 :\n\t"); asm volatile ("LD t3, -608 (s0)\n\t");
    8000174a:	03598d3b          	mulw	s10,s3,s5

000000008000174e <label_0_334>:
  asm volatile ("label_0_404 :\n\t"); asm volatile ("LWU s1, -548 (s0)\n\t");
    8000174e:	03bf64bb          	remw	s1,t5,s11

0000000080001752 <label_0_335>:
  asm volatile ("label_0_405 :\n\t"); asm volatile ("REMW tp, s8, tp\n\t");
    80001752:	0262d73b          	divuw	a4,t0,t1

0000000080001756 <label_0_336>:
  asm volatile ("label_0_406 :\n\t");   asm volatile ("label_0_407 :\n\t");   asm volatile ("label_0_408 :\n\t"); asm volatile ("REMUW tp, s3, s3\n\t");
    80001756:	02467d3b          	remuw	s10,a2,tp

000000008000175a <label_0_337>:
  asm volatile ("label_0_409 :\n\t"); asm volatile ("REMUW s3, zero, s10\n\t");
    8000175a:	024064bb          	remw	s1,zero,tp

000000008000175e <label_0_338>:
  asm volatile ("label_0_410 :\n\t");   asm volatile ("label_0_411 :\n\t"); asm volatile ("REMW a3, s9, s3\n\t");
    8000175e:	2511                	addiw	a0,a0,4

0000000080001760 <label_0_339>:
  asm volatile ("label_0_412 :\n\t"); asm volatile ("REMUW s7, a0, tp\n\t");
    80001760:	03e4eebb          	remw	t4,s1,t5

0000000080001764 <label_0_340>:
  asm volatile ("label_0_413 :\n\t"); asm volatile ("LWU a5, -352 (s0)\n\t");
    80001764:	256d                	addiw	a0,a0,27

0000000080001766 <label_0_341>:
  asm volatile ("label_0_414 :\n\t"); asm volatile ("LD a1, -864 (s0)\n\t");
    80001766:	02fb6d3b          	remw	s10,s6,a5

000000008000176a <label_0_342>:
  asm volatile ("label_0_415 :\n\t"); asm volatile ("REMW a0, a1, t6\n\t");
    8000176a:	40ef02bb          	subw	t0,t5,a4

000000008000176e <label_0_343>:
  asm volatile ("label_0_416 :\n\t"); asm volatile ("DIVUW a4, a2, s11\n\t");
    8000176e:	025ce53b          	remw	a0,s9,t0

0000000080001772 <label_0_344>:
  asm volatile ("label_0_417 :\n\t");   asm volatile ("label_0_418 :\n\t"); asm volatile ("LWU s6, -828 (s0)\n\t");
    80001772:	9ead                	addw	a3,a3,a1

0000000080001774 <label_0_345>:
  asm volatile ("label_0_419 :\n\t"); asm volatile ("REMW s1, a4, s1\n\t");
    80001774:	0242f23b          	remuw	tp,t0,tp

0000000080001778 <label_0_346>:
  asm volatile ("label_0_420 :\n\t"); asm volatile ("DIVUW t6, s8, a6\n\t");
    80001778:	414486bb          	subw	a3,s1,s4

000000008000177c <label_0_347>:
  asm volatile ("label_0_421 :\n\t"); asm volatile ("LWU a5, -220 (s0)\n\t");
    8000177c:	9c89                	subw	s1,s1,a0

000000008000177e <label_0_348>:
  asm volatile ("label_0_422 :\n\t"); asm volatile ("C.ADDW a0, a3\n\t");
    8000177e:	0314873b          	mulw	a4,s1,a7

0000000080001782 <label_0_349>:
  asm volatile ("label_0_423 :\n\t"); asm volatile ("LD a6, -660 (s0)\n\t");
    80001782:	031ed9bb          	divuw	s3,t4,a7

0000000080001786 <label_0_350>:
  asm volatile ("label_0_424 :\n\t"); asm volatile ("DIVW s1, a6, ra\n\t");
    80001786:	015a031b          	addiw	t1,s4,21

000000008000178a <label_0_351>:
  asm volatile ("label_0_425 :\n\t"); asm volatile ("ADDW tp, s11, t1\n\t");
    8000178a:	039d8dbb          	mulw	s11,s11,s9

000000008000178e <label_0_352>:
  asm volatile ("label_0_426 :\n\t"); asm volatile ("REMW a0, s7, s2\n\t");
    8000178e:	4000863b          	subw	a2,ra,zero

0000000080001792 <label_0_353>:
  asm volatile ("label_0_427 :\n\t"); asm volatile ("LWU t2, -300 (s0)\n\t");
    80001792:	020ad8bb          	divuw	a7,s5,zero

0000000080001796 <label_0_354>:
  asm volatile ("label_0_428 :\n\t"); asm volatile ("C.ADDW a4, a5\n\t");
    80001796:	9d99                	subw	a1,a1,a4

0000000080001798 <label_0_355>:
  asm volatile ("label_0_429 :\n\t"); asm volatile ("C.SUBW s1, s1\n\t");
    80001798:	2719                	addiw	a4,a4,6

000000008000179a <label_0_356>:
  asm volatile ("label_0_430 :\n\t");   asm volatile ("label_0_431 :\n\t");   asm volatile ("label_0_432 :\n\t"); asm volatile ("REMUW t4, zero, s3\n\t");
    8000179a:	9fb5                	addw	a5,a5,a3

000000008000179c <label_0_357>:
  asm volatile ("label_0_433 :\n\t");   asm volatile ("label_0_434 :\n\t"); asm volatile ("SUBW s7, s4, a0\n\t");
    8000179c:	9e15                	subw	a2,a2,a3

000000008000179e <label_0_358>:
  asm volatile ("label_0_435 :\n\t");   asm volatile ("label_0_436 :\n\t"); asm volatile ("REMW t5, a7, t3\n\t");
    8000179e:	021e54bb          	divuw	s1,t3,ra

00000000800017a2 <label_0_359>:
  asm volatile ("label_0_437 :\n\t"); asm volatile ("LWU s7, -692 (s0)\n\t");
    800017a2:	036afabb          	remuw	s5,s5,s6

00000000800017a6 <label_0_360>:
  asm volatile ("label_0_438 :\n\t"); asm volatile ("REMW s6, t5, s11\n\t");
    800017a6:	26fd                	addiw	a3,a3,31

00000000800017a8 <label_0_361>:
  asm volatile ("label_0_439 :\n\t"); asm volatile ("SUBW a4, tp, s4\n\t");
    800017a8:	00a6031b          	addiw	t1,a2,10

00000000800017ac <label_0_362>:
  asm volatile ("label_0_440 :\n\t"); asm volatile ("SUBW t3, s9, ra\n\t");
    800017ac:	40a68bbb          	subw	s7,a3,a0

00000000800017b0 <label_0_363>:
  asm volatile ("label_0_441 :\n\t"); asm volatile ("C.ADDIW s1, 0x9\n\t");
    800017b0:	01e004bb          	addw	s1,zero,t5

00000000800017b4 <label_0_364>:
  asm volatile ("label_0_442 :\n\t"); asm volatile ("DIVW s9, s4, t6\n\t");
    800017b4:	0318d2bb          	divuw	t0,a7,a7

00000000800017b8 <label_0_365>:
  asm volatile ("label_0_443 :\n\t"); asm volatile ("LD s8, -60 (s0)\n\t");
    800017b8:	038b53bb          	divuw	t2,s6,s8

00000000800017bc <label_0_366>:
  asm volatile ("label_0_444 :\n\t");   asm volatile ("label_0_445 :\n\t"); asm volatile ("LWU tp, -312 (s0)\n\t");
    800017bc:	9f35                	addw	a4,a4,a3

00000000800017be <label_0_367>:
  asm volatile ("label_0_446 :\n\t"); asm volatile ("C.ADDIW a0, 0xe\n\t");
    800017be:	40aa8f3b          	subw	t5,s5,a0

00000000800017c2 <label_0_368>:
  asm volatile ("label_0_447 :\n\t");   asm volatile ("label_0_448 :\n\t"); asm volatile ("LD t5, -388 (s0)\n\t");
    800017c2:	02e3c0bb          	divw	ra,t2,a4

00000000800017c6 <label_0_369>:
  asm volatile ("label_0_449 :\n\t"); asm volatile ("LWU a5, -808 (s0)\n\t");
    800017c6:	41330cbb          	subw	s9,t1,s3

00000000800017ca <label_0_370>:
  asm volatile ("label_0_450 :\n\t"); asm volatile ("DIVW s9, s7, a3\n\t");
    800017ca:	9ea9                	addw	a3,a3,a0

00000000800017cc <label_0_371>:
  asm volatile ("label_0_451 :\n\t"); asm volatile ("MULW a1, t3, s4\n\t");
    800017cc:	02ebc5bb          	divw	a1,s7,a4

00000000800017d0 <label_0_372>:
  asm volatile ("label_0_452 :\n\t"); asm volatile ("REMW a2, ra, t0\n\t");
    800017d0:	9d0d                	subw	a0,a0,a1

00000000800017d2 <label_0_373>:
  asm volatile ("label_0_453 :\n\t"); asm volatile ("C.ADDW a3, a3\n\t");
    800017d2:	006a0b9b          	addiw	s7,s4,6

00000000800017d6 <label_0_374>:
  asm volatile ("label_0_454 :\n\t"); asm volatile ("LWU s8, -428 (s0)\n\t");
    800017d6:	030663bb          	remw	t2,a2,a6

00000000800017da <label_0_375>:
  asm volatile ("label_0_455 :\n\t"); asm volatile ("C.SUBW a4, a5\n\t");
    800017da:	40d48a3b          	subw	s4,s1,a3

00000000800017de <label_0_376>:
  asm volatile ("label_0_456 :\n\t"); asm volatile ("DIVUW t2, s2, s8\n\t");
    800017de:	258d                	addiw	a1,a1,3

00000000800017e0 <label_0_377>:
  asm volatile ("label_0_457 :\n\t"); asm volatile ("ADDW tp, t2, a1\n\t");
    800017e0:	03ed52bb          	divuw	t0,s10,t5

00000000800017e4 <label_0_378>:
  asm volatile ("label_0_458 :\n\t"); asm volatile ("DIVUW a4, s7, t4\n\t");
    800017e4:	030a55bb          	divuw	a1,s4,a6

00000000800017e8 <label_0_379>:
  asm volatile ("label_0_459 :\n\t"); asm volatile ("DIVUW t1, a5, s5\n\t");
    800017e8:	9e19                	subw	a2,a2,a4

00000000800017ea <label_0_380>:
  asm volatile ("label_0_460 :\n\t"); asm volatile ("DIVUW t0, ra, s4\n\t");
    800017ea:	2585                	addiw	a1,a1,1

00000000800017ec <label_0_381>:
  asm volatile ("label_0_461 :\n\t"); asm volatile ("LD t5, -728 (s0)\n\t");
    800017ec:	032ec23b          	divw	tp,t4,s2

00000000800017f0 <label_0_382>:
  asm volatile ("label_0_462 :\n\t"); asm volatile ("C.ADDIW a1, 0x1c\n\t");
    800017f0:	0340733b          	remuw	t1,zero,s4

00000000800017f4 <label_0_383>:
  asm volatile ("label_0_463 :\n\t"); asm volatile ("MULW s4, ra, tp\n\t");
    800017f4:	038c833b          	mulw	t1,s9,s8

00000000800017f8 <label_0_384>:
  asm volatile ("label_0_464 :\n\t"); asm volatile ("C.ADDW a5, s1\n\t");
    800017f8:	013c8cbb          	addw	s9,s9,s3

00000000800017fc <label_0_385>:
  asm volatile ("label_0_465 :\n\t"); asm volatile ("C.ADDIW s1, 0xf\n\t");
    800017fc:	02dbf33b          	remuw	t1,s7,a3

0000000080001800 <label_0_386>:
  asm volatile ("label_0_466 :\n\t"); asm volatile ("MULW s6, a0, a3\n\t");
    80001800:	249d                	addiw	s1,s1,7

0000000080001802 <label_0_387>:
  asm volatile ("label_0_467 :\n\t"); asm volatile ("LD s10, -176 (s0)\n\t");
    80001802:	0040873b          	addw	a4,ra,tp

0000000080001806 <label_0_388>:
  asm volatile ("label_0_468 :\n\t"); asm volatile ("DIVW t3, s10, s7\n\t");
    80001806:	9e9d                	subw	a3,a3,a5

0000000080001808 <label_0_389>:
  asm volatile ("label_0_469 :\n\t"); asm volatile ("C.SUBW a1, a5\n\t");
    80001808:	029cc4bb          	divw	s1,s9,s1

000000008000180c <label_0_390>:
  asm volatile ("label_0_470 :\n\t"); asm volatile ("LD a4, -616 (s0)\n\t");
    8000180c:	033b47bb          	divw	a5,s6,s3

0000000080001810 <label_0_391>:
  asm volatile ("label_0_471 :\n\t"); asm volatile ("MULW a2, t4, a6\n\t");
    80001810:	026fe33b          	remw	t1,t6,t1

0000000080001814 <label_0_392>:
  asm volatile ("label_0_472 :\n\t"); asm volatile ("LWU s10, -152 (s0)\n\t");
    80001814:	00ed089b          	addiw	a7,s10,14

0000000080001818 <label_0_393>:
  asm volatile ("label_0_473 :\n\t");   asm volatile ("label_0_474 :\n\t"); asm volatile ("REMW t6, s2, s4\n\t");
    80001818:	0090099b          	addiw	s3,zero,9

000000008000181c <label_0_394>:
  asm volatile ("label_0_475 :\n\t"); asm volatile ("LWU t5, -140 (s0)\n\t");
    8000181c:	0100063b          	addw	a2,zero,a6

0000000080001820 <label_0_395>:
  asm volatile ("label_0_476 :\n\t"); asm volatile ("DIVW a3, s11, zero\n\t");
    80001820:	02a60cbb          	mulw	s9,a2,a0

0000000080001824 <label_0_396>:
  asm volatile ("label_0_477 :\n\t"); asm volatile ("DIVUW t1, s6, a2\n\t");
    80001824:	025f003b          	mulw	zero,t5,t0

0000000080001828 <label_0_397>:
  asm volatile ("label_0_478 :\n\t");   asm volatile ("label_0_479 :\n\t"); asm volatile ("LWU a1, -236 (s0)\n\t");
    80001828:	018488bb          	addw	a7,s1,s8

000000008000182c <label_0_398>:
  asm volatile ("label_0_480 :\n\t"); asm volatile ("ADDW tp, s9, a2\n\t");
    8000182c:	405c023b          	subw	tp,s8,t0

0000000080001830 <label_0_399>:
  asm volatile ("label_0_481 :\n\t"); asm volatile ("C.ADDIW a3, 0xe\n\t");
    80001830:	02f0d73b          	divuw	a4,ra,a5

0000000080001834 <label_0_400>:
  asm volatile ("label_0_482 :\n\t"); asm volatile ("LD s11, -544 (s0)\n\t");
    80001834:	00ac8f1b          	addiw	t5,s9,10

0000000080001838 <label_0_401>:
  asm volatile ("label_0_483 :\n\t"); asm volatile ("LD a0, -60 (s0)\n\t");
    80001838:	02b059bb          	divuw	s3,zero,a1

000000008000183c <label_0_402>:
  asm volatile ("label_0_484 :\n\t"); asm volatile ("C.ADDW a3, a1\n\t");
    8000183c:	9fb9                	addw	a5,a5,a4

000000008000183e <label_0_403>:
  asm volatile ("label_0_485 :\n\t");   asm volatile ("label_0_486 :\n\t"); asm volatile ("LWU tp, -272 (s0)\n\t");
    8000183e:	01928c1b          	addiw	s8,t0,25

0000000080001842 <label_0_404>:
  asm volatile ("label_0_487 :\n\t"); asm volatile ("REMW t5, s7, s6\n\t");
    80001842:	9d3d                	addw	a0,a0,a5

0000000080001844 <label_0_405>:
  asm volatile ("label_0_488 :\n\t"); asm volatile ("LD a1, -700 (s0)\n\t");
    80001844:	033053bb          	divuw	t2,zero,s3

0000000080001848 <label_0_406>:
  asm volatile ("label_0_489 :\n\t"); asm volatile ("LWU s8, -108 (s0)\n\t");
    80001848:	0330f23b          	remuw	tp,ra,s3

000000008000184c <label_0_407>:
  asm volatile ("label_0_490 :\n\t"); asm volatile ("DIVW a7, zero, s10\n\t");
    8000184c:	001802bb          	addw	t0,a6,ra

0000000080001850 <label_0_408>:
  asm volatile ("label_0_491 :\n\t"); asm volatile ("C.ADDW a2, a2\n\t");
    80001850:	005f8c1b          	addiw	s8,t6,5

0000000080001854 <label_0_409>:
  asm volatile ("label_0_492 :\n\t"); asm volatile ("C.ADDW a0, a3\n\t");
    80001854:	9fa9                	addw	a5,a5,a0

0000000080001856 <label_0_410>:
  asm volatile ("label_0_493 :\n\t");   asm volatile ("label_0_494 :\n\t"); asm volatile ("REMW tp, s2, ra\n\t");
    80001856:	0007089b          	sext.w	a7,a4

000000008000185a <label_0_411>:
  asm volatile ("label_0_495 :\n\t"); asm volatile ("LD s4, -260 (s0)\n\t");
    8000185a:	02fe07bb          	mulw	a5,t3,a5

000000008000185e <label_0_412>:
  asm volatile ("label_0_496 :\n\t"); asm volatile ("DIVUW ra, a5, s7\n\t");
    8000185e:	020709bb          	mulw	s3,a4,zero

0000000080001862 <label_0_413>:
  asm volatile ("label_0_497 :\n\t"); asm volatile ("C.ADDIW s1, 0x1c\n\t");
    80001862:	02f9053b          	mulw	a0,s2,a5

0000000080001866 <label_0_414>:
  asm volatile ("label_0_498 :\n\t"); asm volatile ("LWU s8, -304 (s0)\n\t");
    80001866:	02786d3b          	remw	s10,a6,t2

000000008000186a <label_0_415>:
  asm volatile ("label_0_499 :\n\t"); asm volatile ("C.ADDIW a0, 0x1e\n\t");
    8000186a:	036cfc3b          	remuw	s8,s9,s6

000000008000186e <label_0_416>:
  asm volatile ("label_0_500 :\n\t"); asm volatile ("ADDIW s10, tp, 0xe\n\t");
    8000186e:	0005861b          	sext.w	a2,a1

0000000080001872 <label_0_417>:
  asm volatile ("label_0_501 :\n\t"); asm volatile ("C.ADDIW a5, 0x1e\n\t");
    80001872:	40e580bb          	subw	ra,a1,a4

0000000080001876 <label_0_418>:
  asm volatile ("label_0_502 :\n\t"); asm volatile ("REMW tp, t2, tp\n\t");
    80001876:	02c2e33b          	remw	t1,t0,a2

000000008000187a <label_0_419>:
  asm volatile ("label_0_503 :\n\t"); asm volatile ("SUBW s11, a2, s8\n\t");
    8000187a:	002c0a9b          	addiw	s5,s8,2

000000008000187e <label_0_420>:
  asm volatile ("label_0_504 :\n\t"); asm volatile ("DIVUW s7, a3, t4\n\t");
    8000187e:	008f8e9b          	addiw	t4,t6,8

0000000080001882 <label_0_421>:
  asm volatile ("label_0_505 :\n\t"); asm volatile ("LWU a7, -92 (s0)\n\t");
    80001882:	02a6fc3b          	remuw	s8,a3,a0

0000000080001886 <label_0_422>:
  asm volatile ("label_0_506 :\n\t"); asm volatile ("C.ADDIW s1, 0x11\n\t");
    80001886:	03d6473b          	divw	a4,a2,t4

000000008000188a <label_0_423>:
  asm volatile ("label_0_507 :\n\t");   asm volatile ("label_0_508 :\n\t"); asm volatile ("DIVW a5, zero, s10\n\t");
    8000188a:	03c3fb3b          	remuw	s6,t2,t3

000000008000188e <label_0_424>:
  asm volatile ("label_0_509 :\n\t"); asm volatile ("LWU a6, -776 (s0)\n\t");
    8000188e:	9c95                	subw	s1,s1,a3

0000000080001890 <label_0_425>:
  asm volatile ("label_0_510 :\n\t"); asm volatile ("LWU a6, -88 (s0)\n\t");
    80001890:	0353f83b          	remuw	a6,t2,s5

0000000080001894 <label_0_426>:
  asm volatile ("label_0_511 :\n\t"); asm volatile ("REMW s2, s3, a3\n\t");
    80001894:	40120b3b          	subw	s6,tp,ra

0000000080001898 <label_0_427>:
  asm volatile ("label_0_512 :\n\t"); asm volatile ("LD zero, -484 (s0)\n\t");
    80001898:	9e09                	subw	a2,a2,a0

000000008000189a <label_0_428>:
  asm volatile ("label_0_513 :\n\t"); asm volatile ("DIVW t3, a5, a5\n\t");
    8000189a:	016a0c9b          	addiw	s9,s4,22

000000008000189e <label_0_429>:
  asm volatile ("label_0_514 :\n\t"); asm volatile ("DIVUW t6, a7, a5\n\t");
    8000189e:	025febbb          	remw	s7,t6,t0

00000000800018a2 <label_0_430>:
  asm volatile ("label_0_515 :\n\t"); asm volatile ("LWU t1, -600 (s0)\n\t");
    800018a2:	0263c8bb          	divw	a7,t2,t1

00000000800018a6 <label_0_431>:
  asm volatile ("label_0_516 :\n\t"); asm volatile ("ADDIW s1, a7, 0x1e\n\t");
    800018a6:	03e2593b          	divuw	s2,tp,t5

00000000800018aa <label_0_432>:
  asm volatile ("label_0_517 :\n\t");   asm volatile ("label_0_518 :\n\t"); asm volatile ("C.SUBW a4, a5\n\t");
    800018aa:	9d29                	addw	a0,a0,a0

00000000800018ac <label_0_433>:
  asm volatile ("label_0_519 :\n\t"); asm volatile ("ADDW zero, a5, s3\n\t");
    800018ac:	9d99                	subw	a1,a1,a4

00000000800018ae <label_0_434>:
  asm volatile ("label_0_520 :\n\t"); asm volatile ("LD a0, -228 (s0)\n\t");
    800018ae:	02efc2bb          	divw	t0,t6,a4

00000000800018b2 <label_0_435>:
  asm volatile ("label_0_521 :\n\t");   asm volatile ("label_0_522 :\n\t"); asm volatile ("LWU t0, -736 (s0)\n\t");
    800018b2:	2801                	sext.w	a6,a6

00000000800018b4 <label_0_436>:
  asm volatile ("label_0_523 :\n\t"); asm volatile ("MULW s2, s10, a3\n\t");
    800018b4:	00970a3b          	addw	s4,a4,s1

00000000800018b8 <label_0_437>:
  asm volatile ("label_0_524 :\n\t"); asm volatile ("LD a4, -820 (s0)\n\t");
    800018b8:	9f0d                	subw	a4,a4,a1

00000000800018ba <label_0_438>:
  asm volatile ("label_0_525 :\n\t"); asm volatile ("LD t4, -676 (s0)\n\t");
    800018ba:	9e19                	subw	a2,a2,a4

00000000800018bc <label_0_439>:
  asm volatile ("label_0_526 :\n\t");   asm volatile ("label_0_527 :\n\t"); asm volatile ("LD s9, -80 (s0)\n\t");
    800018bc:	03170ebb          	mulw	t4,a4,a7

00000000800018c0 <label_0_440>:
  asm volatile ("label_0_528 :\n\t"); asm volatile ("C.SUBW a1, a1\n\t");
    800018c0:	03c06bbb          	remw	s7,zero,t3

00000000800018c4 <label_0_441>:
  asm volatile ("label_0_529 :\n\t"); asm volatile ("REMW zero, a6, a0\n\t");
    800018c4:	9e3d                	addw	a2,a2,a5

00000000800018c6 <label_0_442>:
  asm volatile ("label_0_530 :\n\t");   asm volatile ("label_0_531 :\n\t");   asm volatile ("label_0_532 :\n\t"); asm volatile ("MULW t5, s11, s10\n\t");
    800018c6:	02a7c63b          	divw	a2,a5,a0

00000000800018ca <label_0_443>:
  asm volatile ("label_0_533 :\n\t"); asm volatile ("REMUW a5, a2, s6\n\t");
    800018ca:	413a053b          	subw	a0,s4,s3

00000000800018ce <label_0_444>:
  asm volatile ("label_0_534 :\n\t");   asm volatile ("label_0_535 :\n\t"); asm volatile ("LD a3, -168 (s0)\n\t");
    800018ce:	01bb073b          	addw	a4,s6,s11

00000000800018d2 <label_0_445>:
  asm volatile ("label_0_536 :\n\t");   asm volatile ("label_0_537 :\n\t");   asm volatile ("label_0_538 :\n\t"); asm volatile ("ADDIW t0, s6, 0xd\n\t");
    800018d2:	03e5d73b          	divuw	a4,a1,t5

00000000800018d6 <label_0_446>:
  asm volatile ("label_0_539 :\n\t"); asm volatile ("MULW a6, t2, s1\n\t");
    800018d6:	9d15                	subw	a0,a0,a3

00000000800018d8 <label_0_447>:
  asm volatile ("label_0_540 :\n\t"); asm volatile ("C.ADDIW a4, 0xb\n\t");
    800018d8:	020dfd3b          	remuw	s10,s11,zero

00000000800018dc <label_0_448>:
  asm volatile ("label_0_541 :\n\t"); asm volatile ("LWU a4, -152 (s0)\n\t");
    800018dc:	9ea9                	addw	a3,a3,a0

00000000800018de <label_0_449>:
  asm volatile ("label_0_542 :\n\t"); asm volatile ("ADDW a2, t1, a3\n\t");
    800018de:	039c05bb          	mulw	a1,s8,s9

00000000800018e2 <label_0_450>:
  asm volatile ("label_0_543 :\n\t");   asm volatile ("label_0_544 :\n\t");   asm volatile ("label_0_545 :\n\t"); asm volatile ("LWU s6, -708 (s0)\n\t");
    800018e2:	00c98f3b          	addw	t5,s3,a2

00000000800018e6 <label_0_451>:
  asm volatile ("label_0_546 :\n\t"); asm volatile ("MULW t0, tp, a2\n\t");
    800018e6:	40f38b3b          	subw	s6,t2,a5

00000000800018ea <label_0_452>:
  asm volatile ("label_0_547 :\n\t"); asm volatile ("LD s3, -772 (s0)\n\t");
    800018ea:	40a28e3b          	subw	t3,t0,a0

00000000800018ee <label_0_453>:
  asm volatile ("label_0_548 :\n\t"); asm volatile ("LWU s6, -792 (s0)\n\t");
    800018ee:	015a073b          	addw	a4,s4,s5

00000000800018f2 <label_0_454>:
  asm volatile ("label_0_549 :\n\t"); asm volatile ("DIVUW s5, t5, t4\n\t");
    800018f2:	0346d7bb          	divuw	a5,a3,s4

00000000800018f6 <label_0_455>:
  asm volatile ("label_0_550 :\n\t"); asm volatile ("DIVUW t5, s9, t5\n\t");
    800018f6:	0367553b          	divuw	a0,a4,s6

00000000800018fa <label_0_456>:
  asm volatile ("label_0_551 :\n\t"); asm volatile ("DIVW s7, t4, s4\n\t");
    800018fa:	02ea003b          	mulw	zero,s4,a4

00000000800018fe <label_0_457>:
  asm volatile ("label_0_552 :\n\t"); asm volatile ("LD s8, -340 (s0)\n\t");
    800018fe:	41fd0c3b          	subw	s8,s10,t6

0000000080001902 <label_0_458>:
  asm volatile ("label_0_553 :\n\t"); asm volatile ("LWU s11, -504 (s0)\n\t");
    80001902:	02c3833b          	mulw	t1,t2,a2

0000000080001906 <label_0_459>:
  asm volatile ("label_0_554 :\n\t"); asm volatile ("LD t5, -300 (s0)\n\t");
    80001906:	005f883b          	addw	a6,t6,t0

000000008000190a <label_0_460>:
  asm volatile ("label_0_555 :\n\t"); asm volatile ("DIVUW t2, zero, t3\n\t");
    8000190a:	0129851b          	addiw	a0,s3,18

000000008000190e <label_0_461>:
  asm volatile ("label_0_556 :\n\t"); asm volatile ("SUBW s6, s4, s7\n\t");
    8000190e:	9f1d                	subw	a4,a4,a5

0000000080001910 <label_0_462>:
  asm volatile ("label_0_557 :\n\t"); asm volatile ("LD a0, -64 (s0)\n\t");
    80001910:	02bfd03b          	divuw	zero,t6,a1

0000000080001914 <label_0_463>:
  asm volatile ("label_0_558 :\n\t"); asm volatile ("LWU t0, -260 (s0)\n\t");
    80001914:	021e0e3b          	mulw	t3,t3,ra

0000000080001918 <label_0_464>:
  asm volatile ("label_0_559 :\n\t"); asm volatile ("ADDW t2, tp, a4\n\t");
    80001918:	0189021b          	addiw	tp,s2,24

000000008000191c <label_0_465>:
  asm volatile ("label_0_560 :\n\t"); asm volatile ("ADDIW s7, t4, 0x4\n\t");
    8000191c:	9d3d                	addw	a0,a0,a5

000000008000191e <label_0_466>:
  asm volatile ("label_0_561 :\n\t"); asm volatile ("C.ADDIW a3, 0x12\n\t");
    8000191e:	02aac93b          	divw	s2,s5,a0

0000000080001922 <label_0_467>:
  asm volatile ("label_0_562 :\n\t"); asm volatile ("DIVW ra, t1, s1\n\t");
    80001922:	03f4e53b          	remw	a0,s1,t6

0000000080001926 <label_0_468>:
  asm volatile ("label_0_563 :\n\t"); asm volatile ("LD a5, -60 (s0)\n\t");
    80001926:	03ad6ebb          	remw	t4,s10,s10

000000008000192a <label_0_469>:
  asm volatile ("label_0_564 :\n\t"); asm volatile ("C.ADDIW a0, 0x12\n\t");
    8000192a:	025273bb          	remuw	t2,tp,t0

000000008000192e <label_0_470>:
  asm volatile ("label_0_565 :\n\t"); asm volatile ("REMUW s9, tp, t2\n\t");
    8000192e:	005d0dbb          	addw	s11,s10,t0

0000000080001932 <label_0_471>:
  asm volatile ("label_0_566 :\n\t");   asm volatile ("label_0_567 :\n\t");   asm volatile ("label_0_568 :\n\t"); asm volatile ("C.ADDIW a2, 0x19\n\t");
    80001932:	025d793b          	remuw	s2,s10,t0

0000000080001936 <label_0_472>:
  asm volatile ("label_0_569 :\n\t");   asm volatile ("label_0_570 :\n\t"); asm volatile ("ADDIW s8, t4, 0xb\n\t");
    80001936:	01ed0e9b          	addiw	t4,s10,30

000000008000193a <label_0_473>:
  asm volatile ("label_0_571 :\n\t"); asm volatile ("C.SUBW a1, s1\n\t");
    8000193a:	02b8833b          	mulw	t1,a7,a1

000000008000193e <label_0_474>:
  asm volatile ("label_0_572 :\n\t"); asm volatile ("LWU t1, -200 (s0)\n\t");
    8000193e:	9cb1                	addw	s1,s1,a2

0000000080001940 <label_0_475>:
  asm volatile ("label_0_573 :\n\t"); asm volatile ("REMUW a2, ra, s4\n\t");
    80001940:	03400fbb          	mulw	t6,zero,s4

0000000080001944 <label_0_476>:
  asm volatile ("label_0_574 :\n\t"); asm volatile ("REMW s1, t2, a0\n\t");
    80001944:	03d28d3b          	mulw	s10,t0,t4

0000000080001948 <label_0_477>:
  asm volatile ("label_0_575 :\n\t"); asm volatile ("DIVUW s11, t4, ra\n\t");
    80001948:	41ce86bb          	subw	a3,t4,t3

000000008000194c <label_0_478>:
  asm volatile ("label_0_576 :\n\t"); asm volatile ("ADDW t3, a4, a4\n\t");
    8000194c:	9e39                	addw	a2,a2,a4

000000008000194e <label_0_479>:
  asm volatile ("label_0_577 :\n\t"); asm volatile ("DIVW s7, t6, s9\n\t");
    8000194e:	012a8a3b          	addw	s4,s5,s2

0000000080001952 <label_0_480>:
  asm volatile ("label_0_578 :\n\t"); asm volatile ("SUBW s9, tp, s9\n\t");
    80001952:	012902bb          	addw	t0,s2,s2

0000000080001956 <label_0_481>:
  asm volatile ("label_0_579 :\n\t"); asm volatile ("LD t2, -412 (s0)\n\t");
    80001956:	9dbd                	addw	a1,a1,a5

0000000080001958 <label_0_482>:
  asm volatile ("label_0_580 :\n\t"); asm volatile ("LD a2, -668 (s0)\n\t");
    80001958:	02e36c3b          	remw	s8,t1,a4

000000008000195c <label_0_483>:
  asm volatile ("label_0_581 :\n\t"); asm volatile ("ADDW s5, a0, s11\n\t");
    8000195c:	03b8423b          	divw	tp,a6,s11

0000000080001960 <label_0_484>:
  asm volatile ("label_0_582 :\n\t");   asm volatile ("label_0_583 :\n\t"); asm volatile ("MULW s8, t0, zero\n\t");
    80001960:	9e0d                	subw	a2,a2,a1

0000000080001962 <label_0_485>:
  asm volatile ("label_0_584 :\n\t"); asm volatile ("LWU s7, -52 (s0)\n\t");
    80001962:	0257f73b          	remuw	a4,a5,t0

0000000080001966 <label_0_486>:
  asm volatile ("label_0_585 :\n\t"); asm volatile ("MULW t1, t6, a3\n\t");
    80001966:	03f6c93b          	divw	s2,a3,t6

000000008000196a <label_0_487>:
  asm volatile ("label_0_586 :\n\t"); asm volatile ("REMUW a7, a5, a6\n\t");
    8000196a:	40f283bb          	subw	t2,t0,a5

000000008000196e <label_0_488>:
  asm volatile ("label_0_587 :\n\t"); asm volatile ("DIVW zero, a6, t6\n\t");
    8000196e:	029200bb          	mulw	ra,tp,s1

0000000080001972 <label_0_489>:
  asm volatile ("label_0_588 :\n\t"); asm volatile ("C.ADDIW a0, 0x10\n\t");
    80001972:	9eb5                	addw	a3,a3,a3

0000000080001974 <label_0_490>:
  asm volatile ("label_0_589 :\n\t");   asm volatile ("label_0_590 :\n\t"); asm volatile ("LWU s10, -264 (s0)\n\t");
    80001974:	24d5                	addiw	s1,s1,21

0000000080001976 <label_0_491>:
  asm volatile ("label_0_591 :\n\t"); asm volatile ("C.ADDIW a3, 0x17\n\t");
    80001976:	021d60bb          	remw	ra,s10,ra

000000008000197a <label_0_492>:
  asm volatile ("label_0_592 :\n\t"); asm volatile ("LWU s8, -892 (s0)\n\t");
    8000197a:	9f35                	addw	a4,a4,a3

000000008000197c <label_0_493>:
  asm volatile ("label_0_593 :\n\t"); asm volatile ("LWU s10, -876 (s0)\n\t");
    8000197c:	9e05                	subw	a2,a2,s1

000000008000197e <label_0_494>:
  asm volatile ("label_0_594 :\n\t"); asm volatile ("C.SUBW a2, a3\n\t");
    8000197e:	9f29                	addw	a4,a4,a0

0000000080001980 <label_0_495>:
  asm volatile ("label_0_595 :\n\t"); asm volatile ("LWU ra, -104 (s0)\n\t");
    80001980:	02f0f3bb          	remuw	t2,ra,a5

0000000080001984 <label_0_496>:
  asm volatile ("label_0_596 :\n\t"); asm volatile ("LWU t4, -540 (s0)\n\t");
    80001984:	9dbd                	addw	a1,a1,a5

0000000080001986 <label_0_497>:
  asm volatile ("label_0_597 :\n\t"); asm volatile ("C.ADDW a4, a5\n\t");
    80001986:	027376bb          	remuw	a3,t1,t2

000000008000198a <label_0_498>:
  asm volatile ("label_0_598 :\n\t"); asm volatile ("C.SUBW a1, a0\n\t");
    8000198a:	03ee4e3b          	divw	t3,t3,t5

000000008000198e <label_0_499>:
  asm volatile ("label_0_599 :\n\t"); asm volatile ("LD a4, -52 (s0)\n\t");
    8000198e:	038fc7bb          	divw	a5,t6,s8

0000000080001992 <label_0_500>:
  asm volatile ("label_0_600 :\n\t"); asm volatile ("REMUW t3, a1, t5\n\t");
    80001992:	03aedfbb          	divuw	t6,t4,s10

0000000080001996 <label_0_501>:
  asm volatile ("label_0_601 :\n\t"); asm volatile ("REMW t6, t1, t6\n\t");
    80001996:	413787bb          	subw	a5,a5,s3

000000008000199a <label_0_502>:
  asm volatile ("label_0_602 :\n\t");   asm volatile ("label_0_603 :\n\t"); asm volatile ("ADDIW t5, t1, 0x6\n\t");
    8000199a:	03b0893b          	mulw	s2,ra,s11

000000008000199e <label_0_503>:
  asm volatile ("label_0_604 :\n\t"); asm volatile ("LD a4, -384 (s0)\n\t");
    8000199e:	02dc0f3b          	mulw	t5,s8,a3

00000000800019a2 <label_0_504>:
  asm volatile ("label_0_605 :\n\t"); asm volatile ("SUBW t5, zero, a5\n\t");
    800019a2:	03088f3b          	mulw	t5,a7,a6

00000000800019a6 <label_0_505>:
  asm volatile ("label_0_606 :\n\t");   asm volatile ("label_0_607 :\n\t"); asm volatile ("DIVUW s11, s8, s5\n\t");
    800019a6:	9fa9                	addw	a5,a5,a0

00000000800019a8 <label_0_506>:
  asm volatile ("label_0_608 :\n\t");   asm volatile ("label_0_609 :\n\t");   asm volatile ("label_0_610 :\n\t"); asm volatile ("LWU s5, -100 (s0)\n\t");
    800019a8:	01c907bb          	addw	a5,s2,t3

00000000800019ac <label_0_507>:
  asm volatile ("label_0_611 :\n\t"); asm volatile ("C.ADDW a3, a1\n\t");
    800019ac:	001d8f1b          	addiw	t5,s11,1

00000000800019b0 <label_0_508>:
  asm volatile ("label_0_612 :\n\t");   asm volatile ("label_0_613 :\n\t"); asm volatile ("LWU a6, -356 (s0)\n\t");
    800019b0:	03cec3bb          	divw	t2,t4,t3

00000000800019b4 <label_0_509>:
  asm volatile ("label_0_614 :\n\t"); asm volatile ("SUBW s7, t4, a6\n\t");
    800019b4:	02b605bb          	mulw	a1,a2,a1

00000000800019b8 <label_0_510>:
  asm volatile ("label_0_615 :\n\t"); asm volatile ("DIVUW s11, a3, a3\n\t");
    800019b8:	038776bb          	remuw	a3,a4,s8

00000000800019bc <label_0_511>:
  asm volatile ("label_0_616 :\n\t"); asm volatile ("C.ADDW a4, a1\n\t");
    800019bc:	9cb9                	addw	s1,s1,a4

00000000800019be <label_0_512>:
  asm volatile ("label_0_617 :\n\t"); asm volatile ("SUBW a3, t3, s4\n\t");
    800019be:	0058861b          	addiw	a2,a7,5

00000000800019c2 <label_0_513>:
  asm volatile ("label_0_618 :\n\t"); asm volatile ("REMUW s3, s4, a3\n\t");
    800019c2:	038e8d3b          	mulw	s10,t4,s8

00000000800019c6 <label_0_514>:
  asm volatile ("label_0_619 :\n\t"); asm volatile ("LD a1, -60 (s0)\n\t");
    800019c6:	03c845bb          	divw	a1,a6,t3

00000000800019ca <label_0_515>:
  asm volatile ("label_0_620 :\n\t"); asm volatile ("LD zero, -460 (s0)\n\t");
    800019ca:	412c88bb          	subw	a7,s9,s2

00000000800019ce <label_0_516>:
  asm volatile ("label_0_621 :\n\t"); asm volatile ("LWU a1, -180 (s0)\n\t");
    800019ce:	2779                	addiw	a4,a4,30

00000000800019d0 <label_0_517>:
  asm volatile ("label_0_622 :\n\t"); asm volatile ("DIVUW s11, a3, a0\n\t");
    800019d0:	00a2821b          	addiw	tp,t0,10

00000000800019d4 <label_0_518>:
  asm volatile ("label_0_623 :\n\t"); asm volatile ("C.SUBW s1, a2\n\t");
    800019d4:	027dc2bb          	divw	t0,s11,t2

00000000800019d8 <label_0_519>:
  asm volatile ("label_0_624 :\n\t"); asm volatile ("SUBW s10, t6, t2\n\t");
    800019d8:	9e89                	subw	a3,a3,a0

00000000800019da <label_0_520>:
  asm volatile ("label_0_625 :\n\t"); asm volatile ("DIVW s5, t3, a0\n\t");
    800019da:	26a5                	addiw	a3,a3,9

00000000800019dc <label_0_521>:
  asm volatile ("label_0_626 :\n\t");   asm volatile ("label_0_627 :\n\t"); asm volatile ("REMUW s3, s7, s11\n\t");
    800019dc:	038d473b          	divw	a4,s10,s8

00000000800019e0 <label_0_522>:
  asm volatile ("label_0_628 :\n\t"); asm volatile ("C.SUBW a5, s1\n\t");
    800019e0:	2731                	addiw	a4,a4,12

00000000800019e2 <label_0_523>:
  asm volatile ("label_0_629 :\n\t"); asm volatile ("C.ADDW a1, a3\n\t");
    800019e2:	032a4bbb          	divw	s7,s4,s2

00000000800019e6 <label_0_524>:
  asm volatile ("label_0_630 :\n\t"); asm volatile ("C.ADDIW a2, 0x13\n\t");
    800019e6:	267d                	addiw	a2,a2,31

00000000800019e8 <label_0_525>:
  asm volatile ("label_0_631 :\n\t"); asm volatile ("REMUW s2, a5, s1\n\t");
    800019e8:	03aee8bb          	remw	a7,t4,s10

00000000800019ec <label_0_526>:
  asm volatile ("label_0_632 :\n\t"); asm volatile ("REMUW t3, t1, s2\n\t");
    800019ec:	03397f3b          	remuw	t5,s2,s3

00000000800019f0 <label_0_527>:
  asm volatile ("label_0_633 :\n\t"); asm volatile ("REMUW a7, s6, t1\n\t");
    800019f0:	00ad899b          	addiw	s3,s11,10

00000000800019f4 <label_0_528>:
  asm volatile ("label_0_634 :\n\t"); asm volatile ("LWU a3, -748 (s0)\n\t");
    800019f4:	00598a1b          	addiw	s4,s3,5

00000000800019f8 <label_0_529>:
  asm volatile ("label_0_635 :\n\t"); asm volatile ("C.SUBW s1, a0\n\t");
    800019f8:	9d89                	subw	a1,a1,a0

00000000800019fa <label_0_530>:
  asm volatile ("label_0_636 :\n\t"); asm volatile ("DIVUW t3, t1, a2\n\t");
    800019fa:	006c079b          	addiw	a5,s8,6

00000000800019fe <label_0_531>:
  asm volatile ("label_0_637 :\n\t"); asm volatile ("REMUW t5, t1, a6\n\t");
    800019fe:	035b42bb          	divw	t0,s6,s5

0000000080001a02 <label_0_532>:
  asm volatile ("label_0_638 :\n\t"); asm volatile ("LD a0, -64 (s0)\n\t");
    80001a02:	00130e1b          	addiw	t3,t1,1

0000000080001a06 <label_0_533>:
  asm volatile ("label_0_639 :\n\t"); asm volatile ("MULW s4, t2, t2\n\t");
    80001a06:	03e08abb          	mulw	s5,ra,t5

0000000080001a0a <label_0_534>:
  asm volatile ("label_0_640 :\n\t"); asm volatile ("C.SUBW a1, a3\n\t");
    80001a0a:	414802bb          	subw	t0,a6,s4

0000000080001a0e <label_0_535>:
  asm volatile ("label_0_641 :\n\t"); asm volatile ("ADDIW t0, t5, 0x9\n\t");
    80001a0e:	02174b3b          	divw	s6,a4,ra

0000000080001a12 <label_0_536>:
  asm volatile ("label_0_642 :\n\t"); asm volatile ("LWU s10, -364 (s0)\n\t");
    80001a12:	41e3883b          	subw	a6,t2,t5

0000000080001a16 <label_0_537>:
  asm volatile ("label_0_643 :\n\t"); asm volatile ("LWU t1, -648 (s0)\n\t");
    80001a16:	9f91                	subw	a5,a5,a2

0000000080001a18 <label_0_538>:
  asm volatile ("label_0_644 :\n\t"); asm volatile ("LWU t4, -236 (s0)\n\t");
    80001a18:	021b7d3b          	remuw	s10,s6,ra

0000000080001a1c <label_0_539>:
  asm volatile ("label_0_645 :\n\t");   asm volatile ("label_0_646 :\n\t"); asm volatile ("ADDW s1, a1, s9\n\t");
    80001a1c:	9f0d                	subw	a4,a4,a1

0000000080001a1e <label_0_540>:
  asm volatile ("label_0_647 :\n\t"); asm volatile ("REMW s1, t1, s3\n\t");
    80001a1e:	026609bb          	mulw	s3,a2,t1

0000000080001a22 <label_0_541>:
  asm volatile ("label_0_648 :\n\t"); asm volatile ("ADDIW a4, tp, 0xe\n\t");
    80001a22:	02796a3b          	remw	s4,s2,t2

0000000080001a26 <label_0_542>:
  asm volatile ("label_0_649 :\n\t"); asm volatile ("DIVUW s1, s1, t0\n\t");
    80001a26:	02d0663b          	remw	a2,zero,a3

0000000080001a2a <label_0_543>:
  asm volatile ("label_0_650 :\n\t");   asm volatile ("label_0_651 :\n\t"); asm volatile ("ADDW t1, zero, a3\n\t");
    80001a2a:	00d48dbb          	addw	s11,s1,a3

0000000080001a2e <label_0_544>:
  asm volatile ("label_0_652 :\n\t"); asm volatile ("C.ADDIW a0, 0xa\n\t");
    80001a2e:	00a983bb          	addw	t2,s3,a0

0000000080001a32 <label_0_545>:
  asm volatile ("label_0_653 :\n\t"); asm volatile ("C.ADDW a0, a0\n\t");
    80001a32:	02450ebb          	mulw	t4,a0,tp

0000000080001a36 <label_0_546>:
  asm volatile ("label_0_654 :\n\t"); asm volatile ("C.ADDIW a5, 0xa\n\t");
    80001a36:	01378e1b          	addiw	t3,a5,19

0000000080001a3a <label_0_547>:
  asm volatile ("label_0_655 :\n\t"); asm volatile ("C.ADDW s1, s1\n\t");
    80001a3a:	419d063b          	subw	a2,s10,s9

0000000080001a3e <label_0_548>:
  asm volatile ("label_0_656 :\n\t"); asm volatile ("ADDIW s5, a2, 0xb\n\t");
    80001a3e:	035bfe3b          	remuw	t3,s7,s5

0000000080001a42 <label_0_549>:
  asm volatile ("label_0_657 :\n\t"); asm volatile ("LWU t0, -680 (s0)\n\t");
    80001a42:	9fa9                	addw	a5,a5,a0

0000000080001a44 <label_0_550>:
  asm volatile ("label_0_658 :\n\t");   asm volatile ("label_0_659 :\n\t"); asm volatile ("LD a3, -240 (s0)\n\t");
    80001a44:	9e19                	subw	a2,a2,a4

0000000080001a46 <label_0_551>:
  asm volatile ("label_0_660 :\n\t"); asm volatile ("MULW s8, a0, t3\n\t");
    80001a46:	020bec3b          	remw	s8,s7,zero

0000000080001a4a <label_0_552>:
  asm volatile ("label_0_661 :\n\t"); asm volatile ("REMW a0, t6, a5\n\t");
    80001a4a:	413b8c3b          	subw	s8,s7,s3

0000000080001a4e <label_0_553>:
  asm volatile ("label_0_662 :\n\t");   asm volatile ("label_0_663 :\n\t"); asm volatile ("ADDIW zero, s4, 0x14\n\t");
    80001a4e:	0213cf3b          	divw	t5,t2,ra

0000000080001a52 <label_0_554>:
  asm volatile ("label_0_664 :\n\t"); asm volatile ("DIVW s5, s8, s10\n\t");
    80001a52:	0259633b          	remw	t1,s2,t0

0000000080001a56 <label_0_555>:
  asm volatile ("label_0_665 :\n\t"); asm volatile ("C.ADDIW s1, 0xb\n\t");
    80001a56:	9dad                	addw	a1,a1,a1

0000000080001a58 <label_0_556>:
  asm volatile ("label_0_666 :\n\t"); asm volatile ("MULW t3, a4, a4\n\t");
    80001a58:	9f3d                	addw	a4,a4,a5

0000000080001a5a <label_0_557>:
  asm volatile ("label_0_667 :\n\t"); asm volatile ("REMUW a5, a3, zero\n\t");
    80001a5a:	0315453b          	divw	a0,a0,a7

0000000080001a5e <label_0_558>:
  asm volatile ("label_0_668 :\n\t"); asm volatile ("ADDW t6, a4, s7\n\t");
    80001a5e:	02ca473b          	divw	a4,s4,a2

0000000080001a62 <label_0_559>:
  asm volatile ("label_0_669 :\n\t");   asm volatile ("label_0_670 :\n\t"); asm volatile ("LD zero, -708 (s0)\n\t");
    80001a62:	2625                	addiw	a2,a2,9

0000000080001a64 <label_0_560>:
  asm volatile ("label_0_671 :\n\t"); asm volatile ("REMUW a3, s10, s1\n\t");
    80001a64:	9d05                	subw	a0,a0,s1

0000000080001a66 <label_0_561>:
  asm volatile ("label_0_672 :\n\t"); asm volatile ("ADDW a2, zero, a1\n\t");
    80001a66:	006909bb          	addw	s3,s2,t1

0000000080001a6a <label_0_562>:
  asm volatile ("label_0_673 :\n\t");   asm volatile ("label_0_674 :\n\t");   asm volatile ("label_0_675 :\n\t"); asm volatile ("MULW a0, s11, t5\n\t");
    80001a6a:	24d9                	addiw	s1,s1,22

0000000080001a6c <label_0_563>:
  asm volatile ("label_0_676 :\n\t"); asm volatile ("LD a7, -580 (s0)\n\t");
    80001a6c:	03aac93b          	divw	s2,s5,s10

0000000080001a70 <label_0_564>:
  asm volatile ("label_0_677 :\n\t"); asm volatile ("C.ADDIW s1, 0x5\n\t");
    80001a70:	00b2001b          	addiw	zero,tp,11

0000000080001a74 <label_0_565>:
  asm volatile ("label_0_678 :\n\t"); asm volatile ("LWU s8, -568 (s0)\n\t");
    80001a74:	0390e7bb          	remw	a5,ra,s9

0000000080001a78 <label_0_566>:
  asm volatile ("label_0_679 :\n\t");   asm volatile ("label_0_680 :\n\t"); asm volatile ("DIVUW a0, s9, t1\n\t");
    80001a78:	020d4fbb          	divw	t6,s10,zero

0000000080001a7c <label_0_567>:
  asm volatile ("label_0_681 :\n\t"); asm volatile ("LWU a6, -648 (s0)\n\t");
    80001a7c:	41e00abb          	negw	s5,t5

0000000080001a80 <label_0_568>:
  asm volatile ("label_0_682 :\n\t"); asm volatile ("DIVW s6, t0, s4\n\t");
    80001a80:	02038e3b          	mulw	t3,t2,zero

0000000080001a84 <label_0_569>:
  asm volatile ("label_0_683 :\n\t"); asm volatile ("DIVUW t2, a0, s8\n\t");
    80001a84:	9f11                	subw	a4,a4,a2

0000000080001a86 <label_0_570>:
  asm volatile ("label_0_684 :\n\t"); asm volatile ("ADDIW t4, s1, 0xc\n\t");
    80001a86:	015f079b          	addiw	a5,t5,21

0000000080001a8a <label_0_571>:
  asm volatile ("label_0_685 :\n\t"); asm volatile ("LWU t6, -64 (s0)\n\t");
    80001a8a:	00500f3b          	addw	t5,zero,t0

0000000080001a8e <label_0_572>:
  asm volatile ("label_0_686 :\n\t"); asm volatile ("C.ADDIW a3, 0x8\n\t");
    80001a8e:	2651                	addiw	a2,a2,20

0000000080001a90 <label_0_573>:
  asm volatile ("label_0_687 :\n\t"); asm volatile ("LD a6, -92 (s0)\n\t");
    80001a90:	9ca5                	addw	s1,s1,s1

0000000080001a92 <label_0_574>:
  asm volatile ("label_0_688 :\n\t"); asm volatile ("REMW s11, s4, s8\n\t");
    80001a92:	02fc6ebb          	remw	t4,s8,a5

0000000080001a96 <label_0_575>:
  asm volatile ("label_0_689 :\n\t"); asm volatile ("LWU a7, -384 (s0)\n\t");
    80001a96:	9ca9                	addw	s1,s1,a0

0000000080001a98 <label_0_576>:
  asm volatile ("label_0_690 :\n\t");   asm volatile ("label_0_691 :\n\t"); asm volatile ("LD a5, -276 (s0)\n\t");
    80001a98:	9f29                	addw	a4,a4,a0

0000000080001a9a <label_0_577>:
  asm volatile ("label_0_692 :\n\t"); asm volatile ("LD s4, -524 (s0)\n\t");
    80001a9a:	02e042bb          	divw	t0,zero,a4

0000000080001a9e <label_0_578>:
  asm volatile ("label_0_693 :\n\t");   asm volatile ("label_0_694 :\n\t");   asm volatile ("label_0_695 :\n\t"); asm volatile ("REMW a0, a4, ra\n\t");
    80001a9e:	009d0ebb          	addw	t4,s10,s1

0000000080001aa2 <label_0_579>:
  asm volatile ("label_0_696 :\n\t"); asm volatile ("DIVW s6, tp, s4\n\t");
    80001aa2:	00ef0a3b          	addw	s4,t5,a4

0000000080001aa6 <label_0_580>:
  asm volatile ("label_0_697 :\n\t"); asm volatile ("C.ADDW a3, s1\n\t");
    80001aa6:	00420e3b          	addw	t3,tp,tp

0000000080001aaa <label_0_581>:
  asm volatile ("label_0_698 :\n\t"); asm volatile ("LD t3, -616 (s0)\n\t");
    80001aaa:	017e8e1b          	addiw	t3,t4,23

0000000080001aae <label_0_582>:
  asm volatile ("label_0_699 :\n\t");   asm volatile ("label_0_700 :\n\t"); asm volatile ("C.ADDIW s1, 0xf\n\t");
    80001aae:	03584b3b          	divw	s6,a6,s5

0000000080001ab2 <label_0_583>:
  asm volatile ("label_0_701 :\n\t"); asm volatile ("LWU s5, -276 (s0)\n\t");
    80001ab2:	258d                	addiw	a1,a1,3

0000000080001ab4 <label_0_584>:
  asm volatile ("label_0_702 :\n\t"); asm volatile ("LD s11, -440 (s0)\n\t");
    80001ab4:	03eb553b          	divuw	a0,s6,t5

0000000080001ab8 <label_0_585>:
  asm volatile ("label_0_703 :\n\t"); asm volatile ("C.ADDW a1, a5\n\t");
    80001ab8:	027edbbb          	divuw	s7,t4,t2

0000000080001abc <label_0_586>:
  asm volatile ("label_0_704 :\n\t"); asm volatile ("LWU a2, -128 (s0)\n\t");
    80001abc:	9fb5                	addw	a5,a5,a3

0000000080001abe <label_0_587>:
  asm volatile ("label_0_705 :\n\t");   asm volatile ("label_0_706 :\n\t"); asm volatile ("MULW s5, t2, s1\n\t");
    80001abe:	00e58abb          	addw	s5,a1,a4

0000000080001ac2 <label_0_588>:
  asm volatile ("label_0_707 :\n\t"); asm volatile ("LWU zero, -456 (s0)\n\t");
    80001ac2:	035868bb          	remw	a7,a6,s5

0000000080001ac6 <label_0_589>:
  asm volatile ("label_0_708 :\n\t");   asm volatile ("label_0_709 :\n\t"); asm volatile ("C.ADDW a1, a2\n\t");
    80001ac6:	9d35                	addw	a0,a0,a3

0000000080001ac8 <label_0_590>:
  asm volatile ("label_0_710 :\n\t"); asm volatile ("DIVUW s8, s9, s5\n\t");
    80001ac8:	031fca3b          	divw	s4,t6,a7

0000000080001acc <label_0_591>:
  asm volatile ("label_0_711 :\n\t");   asm volatile ("label_0_712 :\n\t"); asm volatile ("ADDIW s1, a6, 0x0\n\t");
    80001acc:	02ad8f3b          	mulw	t5,s11,a0

0000000080001ad0 <label_0_592>:
  asm volatile ("label_0_713 :\n\t"); asm volatile ("ADDIW a0, a5, 0x19\n\t");
    80001ad0:	034306bb          	mulw	a3,t1,s4

0000000080001ad4 <label_0_593>:
  asm volatile ("label_0_714 :\n\t");   asm volatile ("label_0_715 :\n\t"); asm volatile ("LD s11, -224 (s0)\n\t");
    80001ad4:	02f7403b          	divw	zero,a4,a5

0000000080001ad8 <label_0_594>:
  asm volatile ("label_0_716 :\n\t"); asm volatile ("LWU t4, -160 (s0)\n\t");
    80001ad8:	0210f23b          	remuw	tp,ra,ra

0000000080001adc <label_0_595>:
  asm volatile ("label_0_717 :\n\t");   asm volatile ("label_0_718 :\n\t"); asm volatile ("MULW s7, s1, s10\n\t");
    80001adc:	9c95                	subw	s1,s1,a3

0000000080001ade <label_0_596>:
  asm volatile ("label_0_719 :\n\t"); asm volatile ("C.ADDW a0, a4\n\t");
    80001ade:	02c8e5bb          	remw	a1,a7,a2

0000000080001ae2 <label_0_597>:
  asm volatile ("label_0_720 :\n\t");   asm volatile ("label_0_721 :\n\t"); asm volatile ("ADDW t2, s9, a1\n\t");
    80001ae2:	9f95                	subw	a5,a5,a3

0000000080001ae4 <label_0_598>:
  asm volatile ("label_0_722 :\n\t"); asm volatile ("C.ADDIW a5, 0x15\n\t");
    80001ae4:	0309633b          	remw	t1,s2,a6

0000000080001ae8 <label_0_599>:
  asm volatile ("label_0_723 :\n\t"); asm volatile ("LD s8, -780 (s0)\n\t");
    80001ae8:	03474abb          	divw	s5,a4,s4

0000000080001aec <label_0_600>:
  asm volatile ("label_0_724 :\n\t"); asm volatile ("ADDW t2, ra, t5\n\t");
    80001aec:	9eb9                	addw	a3,a3,a4

0000000080001aee <label_0_601>:
  asm volatile ("label_0_725 :\n\t"); asm volatile ("DIVUW s3, a5, s8\n\t");
    80001aee:	038a653b          	remw	a0,s4,s8

0000000080001af2 <label_0_602>:
  asm volatile ("label_0_726 :\n\t"); asm volatile ("DIVW s9, s8, a1\n\t");
    80001af2:	9e99                	subw	a3,a3,a4

0000000080001af4 <label_0_603>:
  asm volatile ("label_0_727 :\n\t"); asm volatile ("LWU s11, -472 (s0)\n\t");
    80001af4:	006c89bb          	addw	s3,s9,t1

0000000080001af8 <label_0_604>:
  asm volatile ("label_0_728 :\n\t"); asm volatile ("LD s1, -508 (s0)\n\t");
    80001af8:	03ce48bb          	divw	a7,t3,t3

0000000080001afc <label_0_605>:
  asm volatile ("label_0_729 :\n\t"); asm volatile ("DIVW s2, a4, a0\n\t");
    80001afc:	00130a9b          	addiw	s5,t1,1

0000000080001b00 <label_0_606>:
  asm volatile ("label_0_730 :\n\t"); asm volatile ("C.ADDIW a5, 0xc\n\t");
    80001b00:	2541                	addiw	a0,a0,16

0000000080001b02 <label_0_607>:
  asm volatile ("label_0_731 :\n\t");   asm volatile ("label_0_732 :\n\t"); asm volatile ("DIVUW a6, a1, t4\n\t");
    80001b02:	012b06bb          	addw	a3,s6,s2

0000000080001b06 <label_0_608>:
  asm volatile ("label_0_733 :\n\t"); asm volatile ("LWU a7, -228 (s0)\n\t");
    80001b06:	0389003b          	mulw	zero,s2,s8

0000000080001b0a <label_0_609>:
  asm volatile ("label_0_734 :\n\t"); asm volatile ("ADDIW t3, t3, 0xf\n\t");
    80001b0a:	02955f3b          	divuw	t5,a0,s1

0000000080001b0e <label_0_610>:
  asm volatile ("label_0_735 :\n\t");   asm volatile ("label_0_736 :\n\t");   asm volatile ("label_0_737 :\n\t"); asm volatile ("LWU a5, -504 (s0)\n\t");
    80001b0e:	02d7d23b          	divuw	tp,a5,a3

0000000080001b12 <label_0_611>:
  asm volatile ("label_0_738 :\n\t");   asm volatile ("label_0_739 :\n\t"); asm volatile ("LWU s5, -224 (s0)\n\t");
    80001b12:	9f2d                	addw	a4,a4,a1

0000000080001b14 <label_0_612>:
  asm volatile ("label_0_740 :\n\t"); asm volatile ("LWU a5, -192 (s0)\n\t");
    80001b14:	40750fbb          	subw	t6,a0,t2

0000000080001b18 <label_0_613>:
  asm volatile ("label_0_741 :\n\t"); asm volatile ("LWU s2, -524 (s0)\n\t");
    80001b18:	02dae53b          	remw	a0,s5,a3

0000000080001b1c <label_0_614>:
  asm volatile ("label_0_742 :\n\t"); asm volatile ("ADDIW s4, s11, 0xb\n\t");
    80001b1c:	9e8d                	subw	a3,a3,a1

0000000080001b1e <label_0_615>:
  asm volatile ("label_0_743 :\n\t");   asm volatile ("label_0_744 :\n\t"); asm volatile ("DIVW a4, a5, zero\n\t");
    80001b1e:	9f29                	addw	a4,a4,a0

0000000080001b20 <label_0_616>:
  asm volatile ("label_0_745 :\n\t"); asm volatile ("C.ADDW a1, a1\n\t");
    80001b20:	02c0f93b          	remuw	s2,ra,a2

0000000080001b24 <label_0_617>:
  asm volatile ("label_0_746 :\n\t"); asm volatile ("DIVUW ra, t0, t6\n\t");
    80001b24:	027dd8bb          	divuw	a7,s11,t2

0000000080001b28 <label_0_618>:
  asm volatile ("label_0_747 :\n\t"); asm volatile ("LD t4, -516 (s0)\n\t");
    80001b28:	024640bb          	divw	ra,a2,tp

0000000080001b2c <label_0_619>:
  asm volatile ("label_0_748 :\n\t"); asm volatile ("REMW s5, a3, s7\n\t");
    80001b2c:	41380dbb          	subw	s11,a6,s3

0000000080001b30 <label_0_620>:
  asm volatile ("label_0_749 :\n\t"); asm volatile ("C.ADDIW a3, 0x10\n\t");
    80001b30:	9da9                	addw	a1,a1,a0

0000000080001b32 <label_0_621>:
  asm volatile ("label_0_750 :\n\t"); asm volatile ("REMW a0, t1, a1\n\t");
    80001b32:	27a9                	addiw	a5,a5,10

0000000080001b34 <label_0_622>:
  asm volatile ("label_0_751 :\n\t"); asm volatile ("LD s6, -16 (s0)\n\t");
    80001b34:	02748a3b          	mulw	s4,s1,t2

0000000080001b38 <label_0_623>:
  asm volatile ("label_0_752 :\n\t"); asm volatile ("LD t5, -200 (s0)\n\t");
    80001b38:	2711                	addiw	a4,a4,4

0000000080001b3a <label_0_624>:
  asm volatile ("label_0_753 :\n\t"); asm volatile ("LWU tp, -532 (s0)\n\t");
    80001b3a:	0036861b          	addiw	a2,a3,3

0000000080001b3e <label_0_625>:
  asm volatile ("label_0_754 :\n\t"); asm volatile ("DIVUW t3, s7, a1\n\t");
    80001b3e:	0297f33b          	remuw	t1,a5,s1

0000000080001b42 <label_0_626>:
  asm volatile ("label_0_755 :\n\t"); asm volatile ("C.SUBW a1, s1\n\t");
    80001b42:	406d8abb          	subw	s5,s11,t1

0000000080001b46 <label_0_627>:
  asm volatile ("label_0_756 :\n\t"); asm volatile ("LD s8, -776 (s0)\n\t");
    80001b46:	0263ddbb          	divuw	s11,t2,t1

0000000080001b4a <label_0_628>:
  asm volatile ("label_0_757 :\n\t"); asm volatile ("LWU a6, -332 (s0)\n\t");
    80001b4a:	0315083b          	mulw	a6,a0,a7

0000000080001b4e <label_0_629>:
  asm volatile ("label_0_758 :\n\t"); asm volatile ("REMUW t5, t0, s1\n\t");
    80001b4e:	02b7553b          	divuw	a0,a4,a1

0000000080001b52 <label_0_630>:
  asm volatile ("label_0_759 :\n\t");   asm volatile ("label_0_760 :\n\t"); asm volatile ("C.ADDIW a0, 0x1\n\t");
    80001b52:	9d89                	subw	a1,a1,a0

0000000080001b54 <label_0_631>:
  asm volatile ("label_0_761 :\n\t"); asm volatile ("LWU tp, -580 (s0)\n\t");
    80001b54:	2591                	addiw	a1,a1,4

0000000080001b56 <label_0_632>:
  asm volatile ("label_0_762 :\n\t");   asm volatile ("label_0_763 :\n\t"); asm volatile ("SUBW s7, s3, t0\n\t");
    80001b56:	27ad                	addiw	a5,a5,11

0000000080001b58 <label_0_633>:
  asm volatile ("label_0_764 :\n\t"); asm volatile ("C.ADDIW a5, 0x1e\n\t");
    80001b58:	9d8d                	subw	a1,a1,a1

0000000080001b5a <label_0_634>:
  asm volatile ("label_0_765 :\n\t"); asm volatile ("LWU s3, -576 (s0)\n\t");
    80001b5a:	9fb1                	addw	a5,a5,a2

0000000080001b5c <label_0_635>:
  asm volatile ("label_0_766 :\n\t"); asm volatile ("MULW t0, tp, s11\n\t");
    80001b5c:	2601                	sext.w	a2,a2

0000000080001b5e <label_0_636>:
  asm volatile ("label_0_767 :\n\t"); asm volatile ("DIVW s8, s8, t3\n\t");
    80001b5e:	03b968bb          	remw	a7,s2,s11

0000000080001b62 <label_0_637>:
  asm volatile ("label_0_768 :\n\t"); asm volatile ("SUBW s7, s6, zero\n\t");
    80001b62:	9d8d                	subw	a1,a1,a1

0000000080001b64 <label_0_638>:
  asm volatile ("label_0_769 :\n\t"); asm volatile ("LWU s7, -336 (s0)\n\t");
    80001b64:	00088a9b          	sext.w	s5,a7

0000000080001b68 <label_0_639>:
  asm volatile ("label_0_770 :\n\t"); asm volatile ("LWU zero, -828 (s0)\n\t");
    80001b68:	0330063b          	mulw	a2,zero,s3

0000000080001b6c <label_0_640>:
  asm volatile ("label_0_771 :\n\t"); asm volatile ("C.ADDIW s1, 0xa\n\t");
    80001b6c:	000d039b          	sext.w	t2,s10

0000000080001b70 <label_0_641>:
  asm volatile ("label_0_772 :\n\t");   asm volatile ("label_0_773 :\n\t"); asm volatile ("LWU a0, -80 (s0)\n\t");
    80001b70:	0304c9bb          	divw	s3,s1,a6

0000000080001b74 <label_0_642>:
  asm volatile ("label_0_774 :\n\t"); asm volatile ("SUBW s8, a1, t5\n\t");
    80001b74:	9eb1                	addw	a3,a3,a2

0000000080001b76 <label_0_643>:
  asm volatile ("label_0_775 :\n\t"); asm volatile ("LD t2, -228 (s0)\n\t");
    80001b76:	9d29                	addw	a0,a0,a0

0000000080001b78 <label_0_644>:
  asm volatile ("label_0_776 :\n\t"); asm volatile ("ADDIW t4, ra, 0x11\n\t");
    80001b78:	0337f33b          	remuw	t1,a5,s3

0000000080001b7c <label_0_645>:
  asm volatile ("label_0_777 :\n\t"); asm volatile ("LD t2, -768 (s0)\n\t");
    80001b7c:	9e1d                	subw	a2,a2,a5

0000000080001b7e <label_0_646>:
  asm volatile ("label_0_778 :\n\t"); asm volatile ("LWU zero, -756 (s0)\n\t");
    80001b7e:	9cb5                	addw	s1,s1,a3

0000000080001b80 <label_0_647>:
  asm volatile ("label_0_779 :\n\t"); asm volatile ("SUBW s11, a0, t4\n\t");
    80001b80:	0214cdbb          	divw	s11,s1,ra

0000000080001b84 <label_0_648>:
  asm volatile ("label_0_780 :\n\t"); asm volatile ("ADDIW a2, s6, 0xa\n\t");
    80001b84:	020b583b          	divuw	a6,s6,zero

0000000080001b88 <label_0_649>:
  asm volatile ("label_0_781 :\n\t"); asm volatile ("DIVW a0, t6, ra\n\t");
    80001b88:	02a7fc3b          	remuw	s8,a5,a0

0000000080001b8c <label_0_650>:
  asm volatile ("label_0_782 :\n\t"); asm volatile ("C.ADDW a5, a1\n\t");
    80001b8c:	024783bb          	mulw	t2,a5,tp

0000000080001b90 <label_0_651>:
  asm volatile ("label_0_783 :\n\t");   asm volatile ("label_0_784 :\n\t"); asm volatile ("LWU ra, -680 (s0)\n\t");
    80001b90:	9e15                	subw	a2,a2,a3

0000000080001b92 <label_0_652>:
  asm volatile ("label_0_785 :\n\t"); asm volatile ("LWU zero, -456 (s0)\n\t");
    80001b92:	00ce0f9b          	addiw	t6,t3,12

0000000080001b96 <label_0_653>:
  asm volatile ("label_0_786 :\n\t");   asm volatile ("label_0_787 :\n\t"); asm volatile ("ADDW a2, s6, s8\n\t");
    80001b96:	416c09bb          	subw	s3,s8,s6

0000000080001b9a <label_0_654>:
  asm volatile ("label_0_788 :\n\t"); asm volatile ("ADDW a3, t4, t4\n\t");
    80001b9a:	01330abb          	addw	s5,t1,s3

0000000080001b9e <label_0_655>:
  asm volatile ("label_0_789 :\n\t"); asm volatile ("LD a5, -396 (s0)\n\t");
    80001b9e:	037ff83b          	remuw	a6,t6,s7

0000000080001ba2 <label_0_656>:
  asm volatile ("label_0_790 :\n\t"); asm volatile ("ADDW a1, t0, s2\n\t");
    80001ba2:	0373fcbb          	remuw	s9,t2,s7

0000000080001ba6 <label_0_657>:
  asm volatile ("label_0_791 :\n\t"); asm volatile ("REMW t6, a2, a7\n\t");
    80001ba6:	02eb67bb          	remw	a5,s6,a4

0000000080001baa <label_0_658>:
  asm volatile ("label_0_792 :\n\t"); asm volatile ("C.SUBW a5, a2\n\t");
    80001baa:	025c0dbb          	mulw	s11,s8,t0

0000000080001bae <label_0_659>:
  asm volatile ("label_0_793 :\n\t");   asm volatile ("label_0_794 :\n\t"); asm volatile ("MULW a6, s10, a0\n\t");
    80001bae:	01cb849b          	addiw	s1,s7,28

0000000080001bb2 <label_0_660>:
  asm volatile ("label_0_795 :\n\t"); asm volatile ("LD s1, -300 (s0)\n\t");
    80001bb2:	02fb893b          	mulw	s2,s7,a5

0000000080001bb6 <label_0_661>:
  asm volatile ("label_0_796 :\n\t");   asm volatile ("label_0_797 :\n\t"); asm volatile ("ADDW a6, a5, a0\n\t");
    80001bb6:	02af6e3b          	remw	t3,t5,a0

0000000080001bba <label_0_662>:
  asm volatile ("label_0_798 :\n\t"); asm volatile ("MULW t0, s7, zero\n\t");
    80001bba:	9d1d                	subw	a0,a0,a5

0000000080001bbc <label_0_663>:
  asm volatile ("label_0_799 :\n\t"); asm volatile ("LWU s7, -40 (s0)\n\t");
    80001bbc:	0293f3bb          	remuw	t2,t2,s1

0000000080001bc0 <label_0_664>:
  asm volatile ("label_0_800 :\n\t"); asm volatile ("MULW t4, a2, a3\n\t");
    80001bc0:	034d7f3b          	remuw	t5,s10,s4

0000000080001bc4 <label_0_665>:
  asm volatile ("label_0_801 :\n\t"); asm volatile ("LD s8, -560 (s0)\n\t");
    80001bc4:	02435bbb          	divuw	s7,t1,tp

0000000080001bc8 <label_0_666>:
  asm volatile ("label_0_802 :\n\t"); asm volatile ("ADDW a2, s7, a7\n\t");
    80001bc8:	9ebd                	addw	a3,a3,a5

0000000080001bca <label_0_667>:
  asm volatile ("label_0_803 :\n\t"); asm volatile ("LD ra, -124 (s0)\n\t");
    80001bca:	03d84abb          	divw	s5,a6,t4

0000000080001bce <label_0_668>:
  asm volatile ("label_0_804 :\n\t"); asm volatile ("REMUW s11, s9, a6\n\t");
    80001bce:	037b773b          	remuw	a4,s6,s7

0000000080001bd2 <label_0_669>:
  asm volatile ("label_0_805 :\n\t"); asm volatile ("LD t3, -796 (s0)\n\t");
    80001bd2:	0350033b          	mulw	t1,zero,s5

0000000080001bd6 <label_0_670>:
  asm volatile ("label_0_806 :\n\t"); asm volatile ("ADDW a2, a6, t4\n\t");
    80001bd6:	00508d1b          	addiw	s10,ra,5

0000000080001bda <label_0_671>:
  asm volatile ("label_0_807 :\n\t"); asm volatile ("LD s11, -656 (s0)\n\t");
    80001bda:	024383bb          	mulw	t2,t2,tp

0000000080001bde <label_0_672>:
  asm volatile ("label_0_808 :\n\t");   asm volatile ("label_0_809 :\n\t"); asm volatile ("C.ADDW a4, a5\n\t");
    80001bde:	9d91                	subw	a1,a1,a2

0000000080001be0 <label_0_673>:
  asm volatile ("label_0_810 :\n\t"); asm volatile ("LD s10, -220 (s0)\n\t");
    80001be0:	9e9d                	subw	a3,a3,a5

0000000080001be2 <label_0_674>:
  asm volatile ("label_0_811 :\n\t"); asm volatile ("LWU s3, -808 (s0)\n\t");
    80001be2:	0045821b          	addiw	tp,a1,4

0000000080001be6 <label_0_675>:
  asm volatile ("label_0_812 :\n\t"); asm volatile ("LWU s10, -144 (s0)\n\t");
    80001be6:	41900f3b          	negw	t5,s9

0000000080001bea <label_0_676>:
  asm volatile ("label_0_813 :\n\t"); asm volatile ("DIVW t4, s6, zero\n\t");
    80001bea:	9e31                	addw	a2,a2,a2

0000000080001bec <label_0_677>:
  asm volatile ("label_0_814 :\n\t"); asm volatile ("LWU s11, -864 (s0)\n\t");
    80001bec:	01220c9b          	addiw	s9,tp,18

0000000080001bf0 <label_0_678>:
  asm volatile ("label_0_815 :\n\t"); asm volatile ("C.ADDIW a1, 0x1d\n\t");
    80001bf0:	404e8ebb          	subw	t4,t4,tp

0000000080001bf4 <label_0_679>:
  asm volatile ("label_0_816 :\n\t"); asm volatile ("ADDW a4, s1, t3\n\t");
    80001bf4:	41048ebb          	subw	t4,s1,a6

0000000080001bf8 <label_0_680>:
  asm volatile ("label_0_817 :\n\t"); asm volatile ("LD a2, -64 (s0)\n\t");
    80001bf8:	021dddbb          	divuw	s11,s11,ra

0000000080001bfc <label_0_681>:
  asm volatile ("label_0_818 :\n\t"); asm volatile ("C.ADDIW a5, 0xe\n\t");
    80001bfc:	033b03bb          	mulw	t2,s6,s3

0000000080001c00 <label_0_682>:
  asm volatile ("label_0_819 :\n\t"); asm volatile ("LD s7, -532 (s0)\n\t");
    80001c00:	00c70f3b          	addw	t5,a4,a2

0000000080001c04 <label_0_683>:
  asm volatile ("label_0_820 :\n\t"); asm volatile ("DIVW t0, t6, t0\n\t");
    80001c04:	03a74a3b          	divw	s4,a4,s10

0000000080001c08 <label_0_684>:
  asm volatile ("label_0_821 :\n\t"); asm volatile ("C.ADDW a5, a4\n\t");
    80001c08:	0387f0bb          	remuw	ra,a5,s8

0000000080001c0c <label_0_685>:
  asm volatile ("label_0_822 :\n\t"); asm volatile ("C.SUBW s1, s1\n\t");
    80001c0c:	0242f93b          	remuw	s2,t0,tp

0000000080001c10 <label_0_686>:
  asm volatile ("label_0_823 :\n\t"); asm volatile ("LWU t2, -148 (s0)\n\t");
    80001c10:	012b8f1b          	addiw	t5,s7,18

0000000080001c14 <label_0_687>:
  asm volatile ("label_0_824 :\n\t"); asm volatile ("MULW a0, zero, t0\n\t");
    80001c14:	9c85                	subw	s1,s1,s1

0000000080001c16 <label_0_688>:
  asm volatile ("label_0_825 :\n\t"); asm volatile ("C.SUBW a5, s1\n\t");
    80001c16:	020074bb          	remuw	s1,zero,zero

0000000080001c1a <label_0_689>:
  asm volatile ("label_0_826 :\n\t");   asm volatile ("label_0_827 :\n\t"); asm volatile ("LWU a5, -892 (s0)\n\t");
    80001c1a:	9fa5                	addw	a5,a5,s1

0000000080001c1c <label_0_690>:
  asm volatile ("label_0_828 :\n\t");   asm volatile ("label_0_829 :\n\t");   asm volatile ("label_0_830 :\n\t");   asm volatile ("label_0_831 :\n\t"); asm volatile ("REMW s1, s10, s9\n\t");
    80001c1c:	0386e6bb          	remw	a3,a3,s8

0000000080001c20 <label_0_691>:
  asm volatile ("label_0_832 :\n\t"); asm volatile ("C.ADDW a3, a2\n\t");
    80001c20:	03f773bb          	remuw	t2,a4,t6

0000000080001c24 <label_0_692>:
  asm volatile ("label_0_833 :\n\t"); asm volatile ("LD t1, -680 (s0)\n\t");
    80001c24:	027fd03b          	divuw	zero,t6,t2

0000000080001c28 <label_0_693>:
  asm volatile ("label_0_834 :\n\t"); asm volatile ("ADDW t5, a7, zero\n\t");
    80001c28:	0082889b          	addiw	a7,t0,8

0000000080001c2c <label_0_694>:
  asm volatile ("label_0_835 :\n\t"); asm volatile ("C.ADDIW s1, 0xa\n\t");
    80001c2c:	03e58fbb          	mulw	t6,a1,t5

0000000080001c30 <label_0_695>:
  asm volatile ("label_0_836 :\n\t"); asm volatile ("SUBW s1, s3, a7\n\t");
    80001c30:	9f05                	subw	a4,a4,s1

0000000080001c32 <label_0_696>:
  asm volatile ("label_0_837 :\n\t"); asm volatile ("LWU t3, -512 (s0)\n\t");
    80001c32:	25f5                	addiw	a1,a1,29

0000000080001c34 <label_0_697>:
  asm volatile ("label_0_838 :\n\t"); asm volatile ("REMW s7, a3, t5\n\t");
    80001c34:	2481                	sext.w	s1,s1

0000000080001c36 <label_0_698>:
  asm volatile ("label_0_839 :\n\t"); asm volatile ("REMUW a1, s10, s2\n\t");
    80001c36:	03ac7a3b          	remuw	s4,s8,s10

0000000080001c3a <label_0_699>:
  asm volatile ("label_0_840 :\n\t"); asm volatile ("C.ADDIW a5, 0x0\n\t");
    80001c3a:	02a86a3b          	remw	s4,a6,a0

0000000080001c3e <label_0_700>:
  asm volatile ("label_0_841 :\n\t"); asm volatile ("DIVUW t2, s8, tp\n\t");
    80001c3e:	02650b3b          	mulw	s6,a0,t1

0000000080001c42 <label_0_701>:
  asm volatile ("label_0_842 :\n\t"); asm volatile ("MULW s2, s3, s11\n\t");
    80001c42:	00a50f3b          	addw	t5,a0,a0

0000000080001c46 <label_0_702>:
  asm volatile ("label_0_843 :\n\t"); asm volatile ("LD t3, -236 (s0)\n\t");
    80001c46:	01cd001b          	addiw	zero,s10,28

0000000080001c4a <label_0_703>:
  asm volatile ("label_0_844 :\n\t"); asm volatile ("REMW t6, s1, t3\n\t");
    80001c4a:	029beebb          	remw	t4,s7,s1

0000000080001c4e <label_0_704>:
  asm volatile ("label_0_845 :\n\t"); asm volatile ("C.SUBW a1, a5\n\t");
    80001c4e:	0187883b          	addw	a6,a5,s8

0000000080001c52 <label_0_705>:
  asm volatile ("label_0_846 :\n\t"); asm volatile ("REMW zero, s10, t5\n\t");
    80001c52:	000909bb          	addw	s3,s2,zero

0000000080001c56 <label_0_706>:
  asm volatile ("label_0_847 :\n\t"); asm volatile ("LWU s3, -600 (s0)\n\t");
    80001c56:	012005bb          	addw	a1,zero,s2

0000000080001c5a <label_0_707>:
  asm volatile ("label_0_848 :\n\t");   asm volatile ("label_0_849 :\n\t");   asm volatile ("label_0_850 :\n\t"); asm volatile ("LD zero, -780 (s0)\n\t");
    80001c5a:	9f31                	addw	a4,a4,a2

0000000080001c5c <label_0_708>:
  asm volatile ("label_0_851 :\n\t"); asm volatile ("C.ADDW a3, a4\n\t");
    80001c5c:	2c41                	addiw	s8,s8,16

0000000080001c5e <label_0_709>:
  asm volatile ("label_0_852 :\n\t"); asm volatile ("LWU t0, -144 (s0)\n\t");
    80001c5e:	0200693b          	remw	s2,zero,zero

0000000080001c62 <label_0_710>:
  asm volatile ("label_0_853 :\n\t");   asm volatile ("label_0_854 :\n\t"); asm volatile ("C.ADDIW a1, 0x1f\n\t");
    80001c62:	009c883b          	addw	a6,s9,s1

0000000080001c66 <label_0_711>:
  asm volatile ("label_0_855 :\n\t"); asm volatile ("REMUW s8, tp, t2\n\t");
    80001c66:	9d11                	subw	a0,a0,a2

0000000080001c68 <label_0_712>:
  asm volatile ("label_0_856 :\n\t"); asm volatile ("C.SUBW a0, a2\n\t");
    80001c68:	0213653b          	remw	a0,t1,ra

0000000080001c6c <label_0_713>:
  asm volatile ("label_0_857 :\n\t"); asm volatile ("C.ADDIW a2, 0x4\n\t");
    80001c6c:	02b25d3b          	divuw	s10,tp,a1

0000000080001c70 <label_0_714>:
  asm volatile ("label_0_858 :\n\t"); asm volatile ("ADDW s6, s5, s9\n\t");
    80001c70:	02af06bb          	mulw	a3,t5,a0

0000000080001c74 <label_0_715>:
  asm volatile ("label_0_859 :\n\t"); asm volatile ("C.ADDW a3, a3\n\t");
    80001c74:	0392fdbb          	remuw	s11,t0,s9

0000000080001c78 <label_0_716>:
  asm volatile ("label_0_860 :\n\t"); asm volatile ("LD t1, -120 (s0)\n\t");
    80001c78:	03f640bb          	divw	ra,a2,t6

0000000080001c7c <label_0_717>:
  asm volatile ("label_0_861 :\n\t"); asm volatile ("LWU s11, -720 (s0)\n\t");
    80001c7c:	025e04bb          	mulw	s1,t3,t0

0000000080001c80 <label_0_718>:
  asm volatile ("label_0_862 :\n\t"); asm volatile ("LWU a5, -380 (s0)\n\t");
    80001c80:	2561                	addiw	a0,a0,24

0000000080001c82 <label_0_719>:
  asm volatile ("label_0_863 :\n\t"); asm volatile ("SUBW t2, s2, s11\n\t");
    80001c82:	24bd                	addiw	s1,s1,15

0000000080001c84 <label_0_720>:
  asm volatile ("label_0_864 :\n\t"); asm volatile ("SUBW a5, t3, t3\n\t");
    80001c84:	2549                	addiw	a0,a0,18

0000000080001c86 <label_0_721>:
  asm volatile ("label_0_865 :\n\t"); asm volatile ("LWU t3, -192 (s0)\n\t");
    80001c86:	25f5                	addiw	a1,a1,29

0000000080001c88 <label_0_722>:
  asm volatile ("label_0_866 :\n\t"); asm volatile ("MULW zero, t5, t5\n\t");
    80001c88:	9f0d                	subw	a4,a4,a1

0000000080001c8a <label_0_723>:
  asm volatile ("label_0_867 :\n\t"); asm volatile ("LD s1, -396 (s0)\n\t");
    80001c8a:	0324eabb          	remw	s5,s1,s2

0000000080001c8e <label_0_724>:
  asm volatile ("label_0_868 :\n\t"); asm volatile ("SUBW s1, a5, a7\n\t");
    80001c8e:	038650bb          	divuw	ra,a2,s8

0000000080001c92 <label_0_725>:
  asm volatile ("label_0_869 :\n\t"); asm volatile ("LD a6, -60 (s0)\n\t");
    80001c92:	03757dbb          	remuw	s11,a0,s7

0000000080001c96 <label_0_726>:
  asm volatile ("label_0_870 :\n\t"); asm volatile ("C.ADDIW a4, 0x9\n\t");
    80001c96:	27d9                	addiw	a5,a5,22

0000000080001c98 <label_0_727>:
  asm volatile ("label_0_871 :\n\t"); asm volatile ("LD a2, -92 (s0)\n\t");
    80001c98:	035dd53b          	divuw	a0,s11,s5

0000000080001c9c <label_0_728>:
  asm volatile ("label_0_872 :\n\t"); asm volatile ("ADDW ra, t2, a7\n\t");
    80001c9c:	02ea05bb          	mulw	a1,s4,a4

0000000080001ca0 <label_0_729>:
  asm volatile ("label_0_873 :\n\t");   asm volatile ("label_0_874 :\n\t"); asm volatile ("ADDIW a2, s11, 0x3\n\t");
    80001ca0:	02584e3b          	divw	t3,a6,t0

0000000080001ca4 <label_0_730>:
  asm volatile ("label_0_875 :\n\t"); asm volatile ("LD s4, -248 (s0)\n\t");
    80001ca4:	013d001b          	addiw	zero,s10,19

0000000080001ca8 <label_0_731>:
  asm volatile ("label_0_876 :\n\t"); asm volatile ("DIVW s6, t3, t3\n\t");
    80001ca8:	9e0d                	subw	a2,a2,a1

0000000080001caa <label_0_732>:
  asm volatile ("label_0_877 :\n\t");   asm volatile ("label_0_878 :\n\t"); asm volatile ("REMW t5, a2, t1\n\t");
    80001caa:	02768bbb          	mulw	s7,a3,t2

0000000080001cae <label_0_733>:
  asm volatile ("label_0_879 :\n\t"); asm volatile ("LWU s2, -564 (s0)\n\t");
    80001cae:	9e95                	subw	a3,a3,a3

0000000080001cb0 <label_0_734>:
  asm volatile ("label_0_880 :\n\t"); asm volatile ("C.ADDIW a3, 0x14\n\t");
    80001cb0:	0216db3b          	divuw	s6,a3,ra

0000000080001cb4 <label_0_735>:
  asm volatile ("label_0_881 :\n\t"); asm volatile ("LD t0, -528 (s0)\n\t");
    80001cb4:	9d2d                	addw	a0,a0,a1

0000000080001cb6 <label_0_736>:
  asm volatile ("label_0_882 :\n\t"); asm volatile ("REMUW t1, s1, tp\n\t");
    80001cb6:	9cb9                	addw	s1,s1,a4

0000000080001cb8 <label_0_737>:
  asm volatile ("label_0_883 :\n\t"); asm volatile ("LWU s4, -300 (s0)\n\t");
    80001cb8:	9fb1                	addw	a5,a5,a2

0000000080001cba <label_0_738>:
  asm volatile ("label_0_884 :\n\t"); asm volatile ("ADDW s3, s3, s8\n\t");
    80001cba:	9f9d                	subw	a5,a5,a5

0000000080001cbc <label_0_739>:
  asm volatile ("label_0_885 :\n\t"); asm volatile ("REMW a0, a3, s9\n\t");
    80001cbc:	24cd                	addiw	s1,s1,19

0000000080001cbe <label_0_740>:
  asm volatile ("label_0_886 :\n\t"); asm volatile ("SUBW t3, s9, zero\n\t");
    80001cbe:	03b5db3b          	divuw	s6,a1,s11

0000000080001cc2 <label_0_741>:
  asm volatile ("label_0_887 :\n\t"); asm volatile ("LD s1, -352 (s0)\n\t");
    80001cc2:	02625b3b          	divuw	s6,tp,t1

0000000080001cc6 <label_0_742>:
  asm volatile ("label_0_888 :\n\t"); asm volatile ("C.ADDW a4, a2\n\t");
    80001cc6:	9cbd                	addw	s1,s1,a5

0000000080001cc8 <label_0_743>:
  asm volatile ("label_0_889 :\n\t");   asm volatile ("label_0_890 :\n\t"); asm volatile ("SUBW s11, a7, s1\n\t");
    80001cc8:	409d08bb          	subw	a7,s10,s1

0000000080001ccc <label_0_744>:
  asm volatile ("label_0_891 :\n\t"); asm volatile ("SUBW s1, a1, s2\n\t");
    80001ccc:	025d09bb          	mulw	s3,s10,t0

0000000080001cd0 <label_0_745>:
  asm volatile ("label_0_892 :\n\t"); asm volatile ("C.ADDW a5, a0\n\t");
    80001cd0:	025a60bb          	remw	ra,s4,t0

0000000080001cd4 <label_0_746>:
  asm volatile ("label_0_893 :\n\t"); asm volatile ("LD s1, -8 (s0)\n\t");
    80001cd4:	006c8a3b          	addw	s4,s9,t1

0000000080001cd8 <label_0_747>:
  asm volatile ("label_0_894 :\n\t"); asm volatile ("LWU s4, -72 (s0)\n\t");
    80001cd8:	01288b9b          	addiw	s7,a7,18

0000000080001cdc <label_0_748>:
  asm volatile ("label_0_895 :\n\t"); asm volatile ("LWU s7, -660 (s0)\n\t");
    80001cdc:	251d                	addiw	a0,a0,7

0000000080001cde <label_0_749>:
  asm volatile ("label_0_896 :\n\t"); asm volatile ("C.SUBW a0, a2\n\t");
    80001cde:	9e2d                	addw	a2,a2,a1

0000000080001ce0 <label_0_750>:
  asm volatile ("label_0_897 :\n\t"); asm volatile ("ADDIW s7, a7, 0xf\n\t");
    80001ce0:	25e5                	addiw	a1,a1,25

0000000080001ce2 <label_0_751>:
  asm volatile ("label_0_898 :\n\t"); asm volatile ("DIVUW s6, a1, s11\n\t");
    80001ce2:	01090abb          	addw	s5,s2,a6

0000000080001ce6 <label_0_752>:
  asm volatile ("label_0_899 :\n\t"); asm volatile ("REMUW a1, s11, t2\n\t");
    80001ce6:	0383cbbb          	divw	s7,t2,s8

0000000080001cea <label_0_753>:
  asm volatile ("label_0_900 :\n\t"); asm volatile ("LD a7, -524 (s0)\n\t");
    80001cea:	9e15                	subw	a2,a2,a3

0000000080001cec <label_0_754>:
  asm volatile ("label_0_901 :\n\t"); asm volatile ("LWU a1, -128 (s0)\n\t");
    80001cec:	2735                	addiw	a4,a4,13

0000000080001cee <label_0_755>:
  asm volatile ("label_0_902 :\n\t");   asm volatile ("label_0_903 :\n\t"); asm volatile ("LWU t4, -528 (s0)\n\t");
    80001cee:	24b5                	addiw	s1,s1,13

0000000080001cf0 <label_0_756>:
  asm volatile ("label_0_904 :\n\t"); asm volatile ("DIVUW s9, ra, s11\n\t");
    80001cf0:	02f9d6bb          	divuw	a3,s3,a5

0000000080001cf4 <label_0_757>:
  asm volatile ("label_0_905 :\n\t"); asm volatile ("C.ADDIW a5, 0x15\n\t");
    80001cf4:	021cff3b          	remuw	t5,s9,ra

0000000080001cf8 <label_0_758>:
  asm volatile ("label_0_906 :\n\t");   asm volatile ("label_0_907 :\n\t"); asm volatile ("LD s9, -620 (s0)\n\t");
    80001cf8:	9eb5                	addw	a3,a3,a3

0000000080001cfa <label_0_759>:
  asm volatile ("label_0_908 :\n\t"); asm volatile ("C.SUBW s1, a4\n\t");
    80001cfa:	9cbd                	addw	s1,s1,a5

0000000080001cfc <label_0_760>:
  asm volatile ("label_0_909 :\n\t");   asm volatile ("label_0_910 :\n\t"); asm volatile ("LD a6, -688 (s0)\n\t");
    80001cfc:	01c20c3b          	addw	s8,tp,t3

0000000080001d00 <label_0_761>:
  asm volatile ("label_0_911 :\n\t"); asm volatile ("LD a5, -728 (s0)\n\t");
    80001d00:	41368dbb          	subw	s11,a3,s3

0000000080001d04 <label_0_762>:
  asm volatile ("label_0_912 :\n\t"); asm volatile ("DIVUW t4, zero, a4\n\t");
    80001d04:	027968bb          	remw	a7,s2,t2

0000000080001d08 <label_0_763>:
  asm volatile ("label_0_913 :\n\t"); asm volatile ("LD s8, -412 (s0)\n\t");
    80001d08:	0356c73b          	divw	a4,a3,s5

0000000080001d0c <label_0_764>:
  asm volatile ("label_0_914 :\n\t"); asm volatile ("LWU s3, -136 (s0)\n\t");
    80001d0c:	03d482bb          	mulw	t0,s1,t4

0000000080001d10 <label_0_765>:
  asm volatile ("label_0_915 :\n\t"); asm volatile ("REMW t5, tp, t3\n\t");
    80001d10:	01ec839b          	addiw	t2,s9,30

0000000080001d14 <label_0_766>:
  asm volatile ("label_0_916 :\n\t"); asm volatile ("C.ADDW a4, a0\n\t");
    80001d14:	9eb9                	addw	a3,a3,a4

0000000080001d16 <label_0_767>:
  asm volatile ("label_0_917 :\n\t");   asm volatile ("label_0_918 :\n\t"); asm volatile ("SUBW s4, t6, s8\n\t");
    80001d16:	00720dbb          	addw	s11,tp,t2

0000000080001d1a <label_0_768>:
  asm volatile ("label_0_919 :\n\t"); asm volatile ("LWU tp, -640 (s0)\n\t");
    80001d1a:	03f50cbb          	mulw	s9,a0,t6

0000000080001d1e <label_0_769>:
  asm volatile ("label_0_920 :\n\t"); asm volatile ("LD s3, -364 (s0)\n\t");
    80001d1e:	033385bb          	mulw	a1,t2,s3

0000000080001d22 <label_0_770>:
  asm volatile ("label_0_921 :\n\t"); asm volatile ("REMUW a0, a2, s11\n\t");
    80001d22:	011982bb          	addw	t0,s3,a7

0000000080001d26 <label_0_771>:
  asm volatile ("label_0_922 :\n\t");   asm volatile ("label_0_923 :\n\t"); asm volatile ("LD s7, -148 (s0)\n\t");
    80001d26:	007e09bb          	addw	s3,t3,t2

0000000080001d2a <label_0_772>:
  asm volatile ("label_0_924 :\n\t"); asm volatile ("REMUW ra, s11, s1\n\t");
    80001d2a:	035e5abb          	divuw	s5,t3,s5

0000000080001d2e <label_0_773>:
  asm volatile ("label_0_925 :\n\t"); asm volatile ("LWU a4, -548 (s0)\n\t");
    80001d2e:	004b083b          	addw	a6,s6,tp

0000000080001d32 <label_0_774>:
  asm volatile ("label_0_926 :\n\t"); asm volatile ("C.ADDW a4, a3\n\t");
    80001d32:	0312e5bb          	remw	a1,t0,a7

0000000080001d36 <label_0_775>:
  asm volatile ("label_0_927 :\n\t"); asm volatile ("ADDW ra, t0, s6\n\t");
    80001d36:	25e5                	addiw	a1,a1,25

0000000080001d38 <label_0_776>:
  asm volatile ("label_0_928 :\n\t"); asm volatile ("LWU a5, -648 (s0)\n\t");
    80001d38:	016782bb          	addw	t0,a5,s6

0000000080001d3c <label_0_777>:
  asm volatile ("label_0_929 :\n\t"); asm volatile ("SUBW a3, s5, s9\n\t");
    80001d3c:	0352debb          	divuw	t4,t0,s5

0000000080001d40 <label_0_778>:
  asm volatile ("label_0_930 :\n\t"); asm volatile ("DIVW ra, s7, s7\n\t");
    80001d40:	02fa7c3b          	remuw	s8,s4,a5

0000000080001d44 <label_0_779>:
  asm volatile ("label_0_931 :\n\t"); asm volatile ("C.ADDIW a1, 0x8\n\t");
    80001d44:	9e8d                	subw	a3,a3,a1

0000000080001d46 <label_0_780>:
  asm volatile ("label_0_932 :\n\t"); asm volatile ("DIVUW a7, s9, s3\n\t");
    80001d46:	02cf883b          	mulw	a6,t6,a2

0000000080001d4a <label_0_781>:
  asm volatile ("label_0_933 :\n\t"); asm volatile ("MULW a2, ra, a0\n\t");
    80001d4a:	035f423b          	divw	tp,t5,s5

0000000080001d4e <label_0_782>:
  asm volatile ("label_0_934 :\n\t"); asm volatile ("ADDIW ra, s2, 0x1c\n\t");
    80001d4e:	031fddbb          	divuw	s11,t6,a7

0000000080001d52 <label_0_783>:
  asm volatile ("label_0_935 :\n\t");   asm volatile ("label_0_936 :\n\t"); asm volatile ("C.ADDW s1, a0\n\t");
    80001d52:	0342febb          	remuw	t4,t0,s4

0000000080001d56 <label_0_784>:
  asm volatile ("label_0_937 :\n\t"); asm volatile ("C.ADDW a1, s1\n\t");
    80001d56:	02f386bb          	mulw	a3,t2,a5

0000000080001d5a <label_0_785>:
  asm volatile ("label_0_938 :\n\t"); asm volatile ("C.SUBW a4, a2\n\t");
    80001d5a:	034859bb          	divuw	s3,a6,s4

0000000080001d5e <label_0_786>:
  asm volatile ("label_0_939 :\n\t");   asm volatile ("label_0_940 :\n\t");   asm volatile ("label_0_941 :\n\t"); asm volatile ("ADDIW t2, s5, 0x5\n\t");
    80001d5e:	025c4b3b          	divw	s6,s8,t0

0000000080001d62 <label_0_787>:
  asm volatile ("label_0_942 :\n\t");   asm volatile ("label_0_943 :\n\t"); asm volatile ("C.ADDW a0, a0\n\t");
    80001d62:	037a7abb          	remuw	s5,s4,s7

0000000080001d66 <label_0_788>:
  asm volatile ("label_0_944 :\n\t"); asm volatile ("ADDIW s6, s4, 0x8\n\t");
    80001d66:	03b2053b          	mulw	a0,tp,s11

0000000080001d6a <label_0_789>:
  asm volatile ("label_0_945 :\n\t"); asm volatile ("DIVUW a5, s9, a1\n\t");
    80001d6a:	418507bb          	subw	a5,a0,s8

0000000080001d6e <label_0_790>:
  asm volatile ("label_0_946 :\n\t"); asm volatile ("LD t1, -844 (s0)\n\t");
    80001d6e:	0396433b          	divw	t1,a2,s9

0000000080001d72 <label_0_791>:
  asm volatile ("label_0_947 :\n\t");   asm volatile ("label_0_948 :\n\t"); asm volatile ("C.SUBW a1, a2\n\t");
    80001d72:	9fb9                	addw	a5,a5,a4

0000000080001d74 <label_0_792>:
  asm volatile ("label_0_949 :\n\t"); asm volatile ("C.ADDIW a3, 0x11\n\t");
    80001d74:	9f35                	addw	a4,a4,a3

0000000080001d76 <label_0_793>:
  asm volatile ("label_0_950 :\n\t"); asm volatile ("LD s2, -136 (s0)\n\t");
    80001d76:	00968f1b          	addiw	t5,a3,9

0000000080001d7a <label_0_794>:
  asm volatile ("label_0_951 :\n\t"); asm volatile ("DIVUW a2, s8, s4\n\t");
    80001d7a:	01c309bb          	addw	s3,t1,t3

0000000080001d7e <label_0_795>:
  asm volatile ("label_0_952 :\n\t"); asm volatile ("ADDIW t0, t4, 0x7\n\t");
    80001d7e:	025f863b          	mulw	a2,t6,t0

0000000080001d82 <label_0_796>:
  asm volatile ("label_0_953 :\n\t");   asm volatile ("label_0_954 :\n\t"); asm volatile ("LWU s6, -448 (s0)\n\t");
    80001d82:	41750bbb          	subw	s7,a0,s7

0000000080001d86 <label_0_797>:
  asm volatile ("label_0_955 :\n\t"); asm volatile ("REMUW a1, s3, a2\n\t");
    80001d86:	9f99                	subw	a5,a5,a4

0000000080001d88 <label_0_798>:
  asm volatile ("label_0_956 :\n\t"); asm volatile ("LD s7, -648 (s0)\n\t");
    80001d88:	025cdebb          	divuw	t4,s9,t0

0000000080001d8c <label_0_799>:
  asm volatile ("label_0_957 :\n\t"); asm volatile ("LWU t1, -172 (s0)\n\t");
    80001d8c:	00858b1b          	addiw	s6,a1,8

0000000080001d90 <label_0_800>:
  asm volatile ("label_0_958 :\n\t"); asm volatile ("LWU ra, -216 (s0)\n\t");
    80001d90:	2741                	addiw	a4,a4,16

0000000080001d92 <label_0_801>:
  asm volatile ("label_0_959 :\n\t"); asm volatile ("LWU s9, -340 (s0)\n\t");
    80001d92:	03d0cdbb          	divw	s11,ra,t4

0000000080001d96 <label_0_802>:
  asm volatile ("label_0_960 :\n\t"); asm volatile ("REMW ra, zero, a0\n\t");
    80001d96:	025d06bb          	mulw	a3,s10,t0

0000000080001d9a <label_0_803>:
  asm volatile ("label_0_961 :\n\t"); asm volatile ("MULW a5, a0, a1\n\t");
    80001d9a:	0052823b          	addw	tp,t0,t0

0000000080001d9e <label_0_804>:
  asm volatile ("label_0_962 :\n\t"); asm volatile ("DIVUW t1, a7, zero\n\t");
    80001d9e:	0388fe3b          	remuw	t3,a7,s8

0000000080001da2 <label_0_805>:
  asm volatile ("label_0_963 :\n\t"); asm volatile ("LD s3, -268 (s0)\n\t");
    80001da2:	00bc85bb          	addw	a1,s9,a1

0000000080001da6 <label_0_806>:
  asm volatile ("label_0_964 :\n\t"); asm volatile ("LWU t4, -888 (s0)\n\t");
    80001da6:	029dd6bb          	divuw	a3,s11,s1

0000000080001daa <label_0_807>:
  asm volatile ("label_0_965 :\n\t"); asm volatile ("DIVW a5, t0, a7\n\t");
    80001daa:	02b2d73b          	divuw	a4,t0,a1

0000000080001dae <label_0_808>:
  asm volatile ("label_0_966 :\n\t");   asm volatile ("label_0_967 :\n\t");   asm volatile ("label_0_968 :\n\t"); asm volatile ("REMW t4, s4, t0\n\t");
    80001dae:	02ebc7bb          	divw	a5,s7,a4

0000000080001db2 <label_0_809>:
  asm volatile ("label_0_969 :\n\t"); asm volatile ("SUBW a3, s11, zero\n\t");
    80001db2:	02b77c3b          	remuw	s8,a4,a1

0000000080001db6 <label_0_810>:
  asm volatile ("label_0_970 :\n\t"); asm volatile ("C.SUBW a2, a1\n\t");
    80001db6:	03e8dfbb          	divuw	t6,a7,t5

0000000080001dba <label_0_811>:
  asm volatile ("label_0_971 :\n\t"); asm volatile ("LWU a7, -672 (s0)\n\t");
    80001dba:	02dafd3b          	remuw	s10,s5,a3

0000000080001dbe <label_0_812>:
  asm volatile ("label_0_972 :\n\t"); asm volatile ("LD s10, -616 (s0)\n\t");
    80001dbe:	0293f8bb          	remuw	a7,t2,s1

0000000080001dc2 <label_0_813>:
  asm volatile ("label_0_973 :\n\t"); asm volatile ("REMUW t1, t5, t5\n\t");
    80001dc2:	2699                	addiw	a3,a3,6

0000000080001dc4 <label_0_814>:
  asm volatile ("label_0_974 :\n\t"); asm volatile ("LD a0, -124 (s0)\n\t");
    80001dc4:	00288d1b          	addiw	s10,a7,2

0000000080001dc8 <label_0_815>:
  asm volatile ("label_0_975 :\n\t"); asm volatile ("LD a7, -856 (s0)\n\t");
    80001dc8:	40ca8cbb          	subw	s9,s5,a2

0000000080001dcc <label_0_816>:
  asm volatile ("label_0_976 :\n\t"); asm volatile ("ADDW t6, t4, t1\n\t");
    80001dcc:	26c9                	addiw	a3,a3,18

0000000080001dce <label_0_817>:
  asm volatile ("label_0_977 :\n\t"); asm volatile ("DIVW s10, s7, s6\n\t");
    80001dce:	03e965bb          	remw	a1,s2,t5

0000000080001dd2 <label_0_818>:
  asm volatile ("label_0_978 :\n\t"); asm volatile ("LD zero, -600 (s0)\n\t");
    80001dd2:	03b27b3b          	remuw	s6,tp,s11

0000000080001dd6 <label_0_819>:
  asm volatile ("label_0_979 :\n\t"); asm volatile ("ADDIW t1, t5, 0x7\n\t");
    80001dd6:	411d00bb          	subw	ra,s10,a7

0000000080001dda <label_0_820>:
  asm volatile ("label_0_980 :\n\t"); asm volatile ("REMUW a4, s5, a4\n\t");
    80001dda:	9d29                	addw	a0,a0,a0

0000000080001ddc <label_0_821>:
  asm volatile ("label_0_981 :\n\t");   asm volatile ("label_0_982 :\n\t"); asm volatile ("C.SUBW a5, a0\n\t");
    80001ddc:	0372d0bb          	divuw	ra,t0,s7

0000000080001de0 <label_0_822>:
  asm volatile ("label_0_983 :\n\t");   asm volatile ("label_0_984 :\n\t"); asm volatile ("LWU s6, -132 (s0)\n\t");
    80001de0:	02a355bb          	divuw	a1,t1,a0

0000000080001de4 <label_0_823>:
  asm volatile ("label_0_985 :\n\t"); asm volatile ("ADDIW s9, t5, 0xa\n\t");
    80001de4:	9f31                	addw	a4,a4,a2

0000000080001de6 <label_0_824>:
  asm volatile ("label_0_986 :\n\t"); asm volatile ("C.SUBW a5, a0\n\t");
    80001de6:	02937dbb          	remuw	s11,t1,s1

0000000080001dea <label_0_825>:
  asm volatile ("label_0_987 :\n\t"); asm volatile ("LD s8, -892 (s0)\n\t");
    80001dea:	9d9d                	subw	a1,a1,a5

0000000080001dec <label_0_826>:
  asm volatile ("label_0_988 :\n\t"); asm volatile ("LWU t2, -352 (s0)\n\t");
    80001dec:	008c829b          	addiw	t0,s9,8

0000000080001df0 <label_0_827>:
  asm volatile ("label_0_989 :\n\t"); asm volatile ("MULW a6, s3, a2\n\t");
    80001df0:	0213603b          	remw	zero,t1,ra

0000000080001df4 <label_0_828>:
  asm volatile ("label_0_990 :\n\t"); asm volatile ("DIVW t3, t2, tp\n\t");
    80001df4:	0013083b          	addw	a6,t1,ra

0000000080001df8 <label_0_829>:
  asm volatile ("label_0_991 :\n\t"); asm volatile ("DIVUW s2, t5, a7\n\t");
    80001df8:	033956bb          	divuw	a3,s2,s3

0000000080001dfc <label_0_830>:
  asm volatile ("label_0_992 :\n\t"); asm volatile ("LD t2, -144 (s0)\n\t");
    80001dfc:	9d25                	addw	a0,a0,s1

0000000080001dfe <label_0_831>:
  asm volatile ("label_0_993 :\n\t"); asm volatile ("ADDIW zero, t0, 0x6\n\t");
    80001dfe:	03656cbb          	remw	s9,a0,s6

0000000080001e02 <label_0_832>:
  asm volatile ("label_0_994 :\n\t"); asm volatile ("C.SUBW a0, a5\n\t");
    80001e02:	407e87bb          	subw	a5,t4,t2

0000000080001e06 <label_0_833>:
  asm volatile ("label_0_995 :\n\t");   asm volatile ("label_0_996 :\n\t"); asm volatile ("DIVW tp, zero, t2\n\t");
    80001e06:	004a02bb          	addw	t0,s4,tp

0000000080001e0a <label_0_834>:
  asm volatile ("label_0_997 :\n\t"); asm volatile ("C.SUBW a0, s1\n\t");
    80001e0a:	03bc453b          	divw	a0,s8,s11

0000000080001e0e <label_0_835>:
  asm volatile ("label_0_998 :\n\t");   asm volatile ("label_0_999 :\n\t");   asm volatile ("label_0_1000 :\n\t"); asm volatile ("LD t6, -12 (s0)\n\t");
    80001e0e:	0127099b          	addiw	s3,a4,18

0000000080001e12 <label_0_836>:
  asm volatile ("label_0_1001 :\n\t"); asm volatile ("DIVW a6, s6, s2\n\t");
    80001e12:	27d5                	addiw	a5,a5,21

0000000080001e14 <label_0_837>:
  asm volatile ("label_0_1002 :\n\t"); asm volatile ("LD s9, -512 (s0)\n\t");
    80001e14:	02cdc0bb          	divw	ra,s11,a2

0000000080001e18 <label_0_838>:
  asm volatile ("label_0_1003 :\n\t"); asm volatile ("DIVUW s3, a1, a2\n\t");
    80001e18:	031a0ebb          	mulw	t4,s4,a7

0000000080001e1c <label_0_839>:
  asm volatile ("label_0_1004 :\n\t"); asm volatile ("MULW s9, a3, t2\n\t");
    80001e1c:	0208523b          	divuw	tp,a6,zero

0000000080001e20 <label_0_840>:
  asm volatile ("label_0_1005 :\n\t"); asm volatile ("C.ADDIW a3, 0x19\n\t");
    80001e20:	2599                	addiw	a1,a1,6

0000000080001e22 <label_0_841>:
  asm volatile ("label_0_1006 :\n\t"); asm volatile ("LWU t1, -796 (s0)\n\t");
    80001e22:	025d6f3b          	remw	t5,s10,t0

0000000080001e26 <label_0_842>:
  asm volatile ("label_0_1007 :\n\t"); asm volatile ("LWU tp, -64 (s0)\n\t");
    80001e26:	02cf753b          	remuw	a0,t5,a2

0000000080001e2a <label_0_843>:
  asm volatile ("label_0_1008 :\n\t"); asm volatile ("C.ADDIW a1, 0x7\n\t");
    80001e2a:	0278573b          	divuw	a4,a6,t2

0000000080001e2e <label_0_844>:
  asm volatile ("label_0_1009 :\n\t"); asm volatile ("LWU s3, -308 (s0)\n\t");
    80001e2e:	03e943bb          	divw	t2,s2,t5

0000000080001e32 <label_0_845>:
  asm volatile ("label_0_1010 :\n\t"); asm volatile ("REMUW a1, t5, t3\n\t");
    80001e32:	02f50e3b          	mulw	t3,a0,a5

0000000080001e36 <label_0_846>:
  asm volatile ("label_0_1011 :\n\t"); asm volatile ("LWU s9, -584 (s0)\n\t");
    80001e36:	02ffce3b          	divw	t3,t6,a5

0000000080001e3a <label_0_847>:
  asm volatile ("label_0_1012 :\n\t"); asm volatile ("LWU t3, -12 (s0)\n\t");
    80001e3a:	020b6e3b          	remw	t3,s6,zero

0000000080001e3e <label_0_848>:
  asm volatile ("label_0_1013 :\n\t"); asm volatile ("LD s7, -200 (s0)\n\t");
    80001e3e:	025fc3bb          	divw	t2,t6,t0

0000000080001e42 <label_0_849>:
  asm volatile ("label_0_1014 :\n\t"); asm volatile ("C.ADDIW a2, 0x1e\n\t");
    80001e42:	27c5                	addiw	a5,a5,17

0000000080001e44 <label_0_850>:
  asm volatile ("label_0_1015 :\n\t");   asm volatile ("label_0_1016 :\n\t"); asm volatile ("REMW s11, a5, a1\n\t");
    80001e44:	01060f9b          	addiw	t6,a2,16

0000000080001e48 <label_0_851>:
  asm volatile ("label_0_1017 :\n\t"); asm volatile ("LD tp, -252 (s0)\n\t");
    80001e48:	021e823b          	mulw	tp,t4,ra

0000000080001e4c <label_0_852>:
  asm volatile ("label_0_1018 :\n\t");   asm volatile ("label_0_1019 :\n\t"); asm volatile ("LWU a6, -548 (s0)\n\t");
    80001e4c:	41f30cbb          	subw	s9,t1,t6

0000000080001e50 <label_0_853>:
  asm volatile ("label_0_1020 :\n\t"); asm volatile ("C.ADDIW a5, 0xd\n\t");
    80001e50:	9e89                	subw	a3,a3,a0

0000000080001e52 <label_0_854>:
  asm volatile ("label_0_1021 :\n\t");   asm volatile ("label_0_1022 :\n\t");   asm volatile ("label_0_1023 :\n\t"); asm volatile ("MULW s5, a0, t2\n\t");
    80001e52:	9f85                	subw	a5,a5,s1

0000000080001e54 <label_0_855>:
  asm volatile ("label_0_1024 :\n\t"); asm volatile ("LD a4, -20 (s0)\n\t");
    80001e54:	03df03bb          	mulw	t2,t5,t4

0000000080001e58 <label_0_856>:
  asm volatile ("label_0_1025 :\n\t"); asm volatile ("SUBW a4, s3, a5\n\t");
    80001e58:	416006bb          	negw	a3,s6

0000000080001e5c <label_0_857>:
  asm volatile ("label_0_1026 :\n\t"); asm volatile ("LD s2, -500 (s0)\n\t");
    80001e5c:	007d039b          	addiw	t2,s10,7

0000000080001e60 <label_0_858>:
  asm volatile ("label_0_1027 :\n\t"); asm volatile ("SUBW s1, t2, s3\n\t");
    80001e60:	01aa89bb          	addw	s3,s5,s10

0000000080001e64 <label_0_859>:
  asm volatile ("label_0_1028 :\n\t"); asm volatile ("LWU s1, -500 (s0)\n\t");
    80001e64:	01d8833b          	addw	t1,a7,t4

0000000080001e68 <label_0_860>:
  asm volatile ("label_0_1029 :\n\t"); asm volatile ("LWU t0, -428 (s0)\n\t");
    80001e68:	01c380bb          	addw	ra,t2,t3

0000000080001e6c <label_0_861>:
  asm volatile ("label_0_1030 :\n\t"); asm volatile ("MULW t2, s6, t0\n\t");
    80001e6c:	01c7891b          	addiw	s2,a5,28

0000000080001e70 <label_0_862>:
  asm volatile ("label_0_1031 :\n\t"); asm volatile ("LWU ra, -148 (s0)\n\t");
    80001e70:	0348fd3b          	remuw	s10,a7,s4

0000000080001e74 <label_0_863>:
  asm volatile ("label_0_1032 :\n\t"); asm volatile ("DIVUW s2, t2, t2\n\t");
    80001e74:	0310eb3b          	remw	s6,ra,a7

0000000080001e78 <label_0_864>:
  asm volatile ("label_0_1033 :\n\t"); asm volatile ("ADDIW a3, a6, 0xd\n\t");
    80001e78:	029089bb          	mulw	s3,ra,s1

0000000080001e7c <label_0_865>:
  asm volatile ("label_0_1034 :\n\t"); asm volatile ("ADDW a0, a2, s4\n\t");
    80001e7c:	0265cd3b          	divw	s10,a1,t1

0000000080001e80 <label_0_866>:
  asm volatile ("label_0_1035 :\n\t");   asm volatile ("label_0_1036 :\n\t"); asm volatile ("LWU t3, -336 (s0)\n\t");
    80001e80:	41958abb          	subw	s5,a1,s9

0000000080001e84 <label_0_867>:
  asm volatile ("label_0_1037 :\n\t"); asm volatile ("C.ADDW a5, a5\n\t");
    80001e84:	02dde63b          	remw	a2,s11,a3

0000000080001e88 <label_0_868>:
  asm volatile ("label_0_1038 :\n\t"); asm volatile ("LD s8, -700 (s0)\n\t");
    80001e88:	9d2d                	addw	a0,a0,a1

0000000080001e8a <label_0_869>:
  asm volatile ("label_0_1039 :\n\t"); asm volatile ("ADDIW t0, a0, 0x1a\n\t");
    80001e8a:	00c08d1b          	addiw	s10,ra,12

0000000080001e8e <label_0_870>:
  asm volatile ("label_0_1040 :\n\t"); asm volatile ("LD s1, -748 (s0)\n\t");
    80001e8e:	401e083b          	subw	a6,t3,ra

0000000080001e92 <label_0_871>:
  asm volatile ("label_0_1041 :\n\t"); asm volatile ("LD s5, -872 (s0)\n\t");
    80001e92:	9d35                	addw	a0,a0,a3

0000000080001e94 <label_0_872>:
  asm volatile ("label_0_1042 :\n\t"); asm volatile ("ADDW t6, s3, s1\n\t");
    80001e94:	9f31                	addw	a4,a4,a2

0000000080001e96 <label_0_873>:
  asm volatile ("label_0_1043 :\n\t"); asm volatile ("REMUW ra, t3, a6\n\t");
    80001e96:	01b309bb          	addw	s3,t1,s11

0000000080001e9a <label_0_874>:
  asm volatile ("label_0_1044 :\n\t");   asm volatile ("label_0_1045 :\n\t"); asm volatile ("REMW a4, s2, s3\n\t");
    80001e9a:	03e5f8bb          	remuw	a7,a1,t5

0000000080001e9e <label_0_875>:
  asm volatile ("label_0_1046 :\n\t"); asm volatile ("SUBW s8, t5, s8\n\t");
    80001e9e:	03a20a3b          	mulw	s4,tp,s10

0000000080001ea2 <label_0_876>:
  asm volatile ("label_0_1047 :\n\t"); asm volatile ("LWU t4, -356 (s0)\n\t");
    80001ea2:	9dad                	addw	a1,a1,a1

0000000080001ea4 <label_0_877>:
  asm volatile ("label_0_1048 :\n\t"); asm volatile ("C.SUBW a3, a4\n\t");
    80001ea4:	003d881b          	addiw	a6,s11,3

0000000080001ea8 <label_0_878>:
  asm volatile ("label_0_1049 :\n\t"); asm volatile ("DIVUW tp, t2, ra\n\t");
    80001ea8:	0383873b          	mulw	a4,t2,s8

0000000080001eac <label_0_879>:
  asm volatile ("label_0_1050 :\n\t"); asm volatile ("ADDW a2, tp, a5\n\t");
    80001eac:	02dc54bb          	divuw	s1,s8,a3

0000000080001eb0 <label_0_880>:
  asm volatile ("label_0_1051 :\n\t"); asm volatile ("REMW a1, t0, s2\n\t");
    80001eb0:	0028849b          	addiw	s1,a7,2

0000000080001eb4 <label_0_881>:
  asm volatile ("label_0_1052 :\n\t"); asm volatile ("LD t3, -476 (s0)\n\t");
    80001eb4:	0392f6bb          	remuw	a3,t0,s9

0000000080001eb8 <label_0_882>:
  asm volatile ("label_0_1053 :\n\t"); asm volatile ("REMW a1, t0, a0\n\t");
    80001eb8:	01158cbb          	addw	s9,a1,a7

0000000080001ebc <label_0_883>:
  asm volatile ("label_0_1054 :\n\t");   asm volatile ("label_0_1055 :\n\t");   asm volatile ("label_0_1056 :\n\t"); asm volatile ("LD s11, -484 (s0)\n\t");
    80001ebc:	251d                	addiw	a0,a0,7

0000000080001ebe <label_0_884>:
  asm volatile ("label_0_1057 :\n\t"); asm volatile ("SUBW s4, zero, a5\n\t");
    80001ebe:	03c0eabb          	remw	s5,ra,t3

0000000080001ec2 <label_0_885>:
  asm volatile ("label_0_1058 :\n\t"); asm volatile ("LWU s3, -140 (s0)\n\t");
    80001ec2:	9e8d                	subw	a3,a3,a1

0000000080001ec4 <label_0_886>:
  asm volatile ("label_0_1059 :\n\t"); asm volatile ("ADDW s5, s4, zero\n\t");
    80001ec4:	02f2c7bb          	divw	a5,t0,a5

0000000080001ec8 <label_0_887>:
  asm volatile ("label_0_1060 :\n\t"); asm volatile ("DIVUW ra, t4, s7\n\t");
    80001ec8:	02784a3b          	divw	s4,a6,t2

0000000080001ecc <label_0_888>:
  asm volatile ("label_0_1061 :\n\t"); asm volatile ("REMUW s2, a4, s9\n\t");
    80001ecc:	02c2e6bb          	remw	a3,t0,a2

0000000080001ed0 <label_0_889>:
  asm volatile ("label_0_1062 :\n\t"); asm volatile ("C.SUBW a4, a1\n\t");
    80001ed0:	0138893b          	addw	s2,a7,s3

0000000080001ed4 <label_0_890>:
  asm volatile ("label_0_1063 :\n\t");   asm volatile ("label_0_1064 :\n\t");   asm volatile ("label_0_1065 :\n\t"); asm volatile ("LWU a6, -312 (s0)\n\t");
    80001ed4:	03efc73b          	divw	a4,t6,t5

0000000080001ed8 <label_0_891>:
  asm volatile ("label_0_1066 :\n\t"); asm volatile ("LD zero, -896 (s0)\n\t");
    80001ed8:	02fb0d3b          	mulw	s10,s6,a5

0000000080001edc <label_0_892>:
  asm volatile ("label_0_1067 :\n\t"); asm volatile ("ADDIW s5, ra, 0x1e\n\t");
    80001edc:	013b861b          	addiw	a2,s7,19

0000000080001ee0 <label_0_893>:
  asm volatile ("label_0_1068 :\n\t"); asm volatile ("DIVW s8, s7, t2\n\t");
    80001ee0:	0338c0bb          	divw	ra,a7,s3

0000000080001ee4 <label_0_894>:
  asm volatile ("label_0_1069 :\n\t"); asm volatile ("C.ADDIW a4, 0x5\n\t");
    80001ee4:	9fb9                	addw	a5,a5,a4

0000000080001ee6 <label_0_895>:
  asm volatile ("label_0_1070 :\n\t"); asm volatile ("LD s4, -664 (s0)\n\t");
    80001ee6:	03cedbbb          	divuw	s7,t4,t3

0000000080001eea <label_0_896>:
  asm volatile ("label_0_1071 :\n\t"); asm volatile ("DIVUW s6, t4, s11\n\t");
    80001eea:	279d                	addiw	a5,a5,7

0000000080001eec <label_0_897>:
  asm volatile ("label_0_1072 :\n\t"); asm volatile ("LWU s11, -860 (s0)\n\t");
    80001eec:	250d                	addiw	a0,a0,3

0000000080001eee <label_0_898>:
  asm volatile ("label_0_1073 :\n\t"); asm volatile ("LWU a2, -804 (s0)\n\t");
    80001eee:	0200093b          	mulw	s2,zero,zero

0000000080001ef2 <label_0_899>:
  asm volatile ("label_0_1074 :\n\t");   asm volatile ("label_0_1075 :\n\t"); asm volatile ("ADDW t5, zero, a5\n\t");
    80001ef2:	0372853b          	mulw	a0,t0,s7

0000000080001ef6 <label_0_900>:
  asm volatile ("label_0_1076 :\n\t"); asm volatile ("DIVW t1, s6, a4\n\t");
    80001ef6:	02c3cd3b          	divw	s10,t2,a2

0000000080001efa <label_0_901>:
  asm volatile ("label_0_1077 :\n\t"); asm volatile ("LD s5, -592 (s0)\n\t");
    80001efa:	40a307bb          	subw	a5,t1,a0

0000000080001efe <label_0_902>:
  asm volatile ("label_0_1078 :\n\t");   asm volatile ("label_0_1079 :\n\t"); asm volatile ("LD a2, -12 (s0)\n\t");
    80001efe:	03af08bb          	mulw	a7,t5,s10

0000000080001f02 <label_0_903>:
  asm volatile ("label_0_1080 :\n\t"); asm volatile ("MULW s9, s4, a6\n\t");
    80001f02:	41760d3b          	subw	s10,a2,s7

0000000080001f06 <label_0_904>:
  asm volatile ("label_0_1081 :\n\t"); asm volatile ("DIVW a6, ra, a2\n\t");
    80001f06:	9fa5                	addw	a5,a5,s1

0000000080001f08 <label_0_905>:
  asm volatile ("label_0_1082 :\n\t");   asm volatile ("label_0_1083 :\n\t"); asm volatile ("MULW a6, a7, t4\n\t");
    80001f08:	9f2d                	addw	a4,a4,a1

0000000080001f0a <label_0_906>:
  asm volatile ("label_0_1084 :\n\t"); asm volatile ("LD s3, -624 (s0)\n\t");
    80001f0a:	02066d3b          	remw	s10,a2,zero

0000000080001f0e <label_0_907>:
  asm volatile ("label_0_1085 :\n\t");   asm volatile ("label_0_1086 :\n\t"); asm volatile ("LWU zero, -24 (s0)\n\t");
    80001f0e:	02f342bb          	divw	t0,t1,a5

0000000080001f12 <label_0_908>:
  asm volatile ("label_0_1087 :\n\t"); asm volatile ("DIVW s10, a5, tp\n\t");
    80001f12:	026979bb          	remuw	s3,s2,t1

0000000080001f16 <label_0_909>:
  asm volatile ("label_0_1088 :\n\t");   asm volatile ("label_0_1089 :\n\t");   asm volatile ("label_0_1090 :\n\t");   asm volatile ("label_0_1091 :\n\t"); asm volatile ("ADDW zero, t5, a5\n\t");
    80001f16:	9d8d                	subw	a1,a1,a1

0000000080001f18 <label_0_910>:
  asm volatile ("label_0_1092 :\n\t"); asm volatile ("ADDIW t0, s2, 0xa\n\t");
    80001f18:	00cd891b          	addiw	s2,s11,12

0000000080001f1c <label_0_911>:
  asm volatile ("label_0_1093 :\n\t");   asm volatile ("label_0_1094 :\n\t"); asm volatile ("LWU s6, -268 (s0)\n\t");
    80001f1c:	9c91                	subw	s1,s1,a2

0000000080001f1e <label_0_912>:
  asm volatile ("label_0_1095 :\n\t"); asm volatile ("LD a3, -20 (s0)\n\t");
    80001f1e:	26ed                	addiw	a3,a3,27

0000000080001f20 <label_0_913>:
  asm volatile ("label_0_1096 :\n\t"); asm volatile ("LD a6, -896 (s0)\n\t");
    80001f20:	02e8783b          	remuw	a6,a6,a4

0000000080001f24 <label_0_914>:
  asm volatile ("label_0_1097 :\n\t"); asm volatile ("LWU s8, -68 (s0)\n\t");
    80001f24:	00e8859b          	addiw	a1,a7,14

0000000080001f28 <label_0_915>:
  asm volatile ("label_0_1098 :\n\t"); asm volatile ("LWU t4, -812 (s0)\n\t");
    80001f28:	019582bb          	addw	t0,a1,s9

0000000080001f2c <label_0_916>:
  asm volatile ("label_0_1099 :\n\t"); asm volatile ("C.ADDIW a4, 0x0\n\t");
    80001f2c:	0326783b          	remuw	a6,a2,s2

0000000080001f30 <label_0_917>:
  asm volatile ("label_0_1100 :\n\t"); asm volatile ("LWU t4, -704 (s0)\n\t");
    80001f30:	01d30d9b          	addiw	s11,t1,29

0000000080001f34 <label_0_918>:
  asm volatile ("label_0_1101 :\n\t"); asm volatile ("SUBW a0, a5, tp\n\t");
    80001f34:	02fbc6bb          	divw	a3,s7,a5

0000000080001f38 <label_0_919>:
  asm volatile ("label_0_1102 :\n\t"); asm volatile ("SUBW t6, t4, s5\n\t");
    80001f38:	9f19                	subw	a4,a4,a4

0000000080001f3a <label_0_920>:
  asm volatile ("label_0_1103 :\n\t"); asm volatile ("DIVW s1, s9, a2\n\t");
    80001f3a:	03c2cb3b          	divw	s6,t0,t3

0000000080001f3e <label_0_921>:
  asm volatile ("label_0_1104 :\n\t"); asm volatile ("REMUW a6, s2, s8\n\t");
    80001f3e:	9f31                	addw	a4,a4,a2

0000000080001f40 <label_0_922>:
  asm volatile ("label_0_1105 :\n\t"); asm volatile ("REMUW s11, t3, s5\n\t");
    80001f40:	0334f8bb          	remuw	a7,s1,s3

0000000080001f44 <label_0_923>:
  asm volatile ("label_0_1106 :\n\t");   asm volatile ("label_0_1107 :\n\t");   asm volatile ("label_0_1108 :\n\t"); asm volatile ("ADDIW a6, s2, 0x1a\n\t");
    80001f44:	03f26ebb          	remw	t4,tp,t6

0000000080001f48 <label_0_924>:
  asm volatile ("label_0_1109 :\n\t"); asm volatile ("LWU t1, -508 (s0)\n\t");
    80001f48:	0009849b          	sext.w	s1,s3

0000000080001f4c <label_0_925>:
  asm volatile ("label_0_1110 :\n\t"); asm volatile ("LWU t3, -420 (s0)\n\t");
    80001f4c:	02a4c8bb          	divw	a7,s1,a0

0000000080001f50 <label_0_926>:
  asm volatile ("label_0_1111 :\n\t"); asm volatile ("SUBW s8, a1, t4\n\t");
    80001f50:	00190f1b          	addiw	t5,s2,1

0000000080001f54 <label_0_927>:
  asm volatile ("label_0_1112 :\n\t");   asm volatile ("label_0_1113 :\n\t"); asm volatile ("C.ADDW a0, a5\n\t");
    80001f54:	4142823b          	subw	tp,t0,s4

0000000080001f58 <label_0_928>:
  asm volatile ("label_0_1114 :\n\t"); asm volatile ("C.ADDW s1, s1\n\t");
    80001f58:	03088c3b          	mulw	s8,a7,a6

0000000080001f5c <label_0_929>:
  asm volatile ("label_0_1115 :\n\t"); asm volatile ("LD t0, -104 (s0)\n\t");
    80001f5c:	9d99                	subw	a1,a1,a4

0000000080001f5e <label_0_930>:
  asm volatile ("label_0_1116 :\n\t"); asm volatile ("MULW s11, zero, s5\n\t");
    80001f5e:	00ba8c9b          	addiw	s9,s5,11

0000000080001f62 <label_0_931>:
  asm volatile ("label_0_1117 :\n\t"); asm volatile ("REMW s11, t6, s7\n\t");
    80001f62:	24a5                	addiw	s1,s1,9

0000000080001f64 <label_0_932>:
  asm volatile ("label_0_1118 :\n\t");   asm volatile ("label_0_1119 :\n\t"); asm volatile ("LD a7, -292 (s0)\n\t");
    80001f64:	0140071b          	addiw	a4,zero,20

0000000080001f68 <label_0_933>:
  asm volatile ("label_0_1120 :\n\t"); asm volatile ("LWU s5, -880 (s0)\n\t");
    80001f68:	2579                	addiw	a0,a0,30

0000000080001f6a <label_0_934>:
  asm volatile ("label_0_1121 :\n\t"); asm volatile ("DIVUW a6, s5, a3\n\t");
    80001f6a:	02024f3b          	divw	t5,tp,zero

0000000080001f6e <label_0_935>:
  asm volatile ("label_0_1122 :\n\t"); asm volatile ("LWU a1, -100 (s0)\n\t");
    80001f6e:	00cd8dbb          	addw	s11,s11,a2

0000000080001f72 <label_0_936>:
  asm volatile ("label_0_1123 :\n\t"); asm volatile ("ADDW zero, tp, s1\n\t");
    80001f72:	03efde3b          	divuw	t3,t6,t5

0000000080001f76 <label_0_937>:
  asm volatile ("label_0_1124 :\n\t"); asm volatile ("ADDIW a3, s4, 0x19\n\t");
    80001f76:	9d19                	subw	a0,a0,a4

0000000080001f78 <label_0_938>:
  asm volatile ("label_0_1125 :\n\t"); asm volatile ("LWU t0, -632 (s0)\n\t");
    80001f78:	0043809b          	addiw	ra,t2,4

0000000080001f7c <label_0_939>:
  asm volatile ("label_0_1126 :\n\t"); asm volatile ("REMUW tp, a4, s8\n\t");
    80001f7c:	406387bb          	subw	a5,t2,t1

0000000080001f80 <label_0_940>:
  asm volatile ("label_0_1127 :\n\t"); asm volatile ("LD t3, -740 (s0)\n\t");
    80001f80:	02cc5fbb          	divuw	t6,s8,a2

0000000080001f84 <label_0_941>:
  asm volatile ("label_0_1128 :\n\t");   asm volatile ("label_0_1129 :\n\t"); asm volatile ("C.SUBW a3, a1\n\t");
    80001f84:	01558e1b          	addiw	t3,a1,21

0000000080001f88 <label_0_942>:
  asm volatile ("label_0_1130 :\n\t");   asm volatile ("label_0_1131 :\n\t"); asm volatile ("LD a6, -248 (s0)\n\t");
    80001f88:	9dbd                	addw	a1,a1,a5

0000000080001f8a <label_0_943>:
  asm volatile ("label_0_1132 :\n\t"); asm volatile ("LD a7, -460 (s0)\n\t");
    80001f8a:	9e25                	addw	a2,a2,s1

0000000080001f8c <label_0_944>:
  asm volatile ("label_0_1133 :\n\t"); asm volatile ("LD s6, -184 (s0)\n\t");
    80001f8c:	9da5                	addw	a1,a1,s1

0000000080001f8e <label_0_945>:
  asm volatile ("label_0_1134 :\n\t"); asm volatile ("LD a3, -664 (s0)\n\t");
    80001f8e:	020549bb          	divw	s3,a0,zero

0000000080001f92 <label_0_946>:
  asm volatile ("label_0_1135 :\n\t"); asm volatile ("ADDW ra, s3, t4\n\t");
    80001f92:	031953bb          	divuw	t2,s2,a7

0000000080001f96 <label_0_947>:
  asm volatile ("label_0_1136 :\n\t"); asm volatile ("LWU s4, -576 (s0)\n\t");
    80001f96:	039b63bb          	remw	t2,s6,s9

0000000080001f9a <label_0_948>:
  asm volatile ("label_0_1137 :\n\t"); asm volatile ("LWU t3, -640 (s0)\n\t");
    80001f9a:	009a899b          	addiw	s3,s5,9

0000000080001f9e <label_0_949>:
  asm volatile ("label_0_1138 :\n\t"); asm volatile ("DIVUW a2, a4, ra\n\t");
    80001f9e:	9ca9                	addw	s1,s1,a0

0000000080001fa0 <label_0_950>:
  asm volatile ("label_0_1139 :\n\t"); asm volatile ("ADDW s8, t6, a7\n\t");
    80001fa0:	016c03bb          	addw	t2,s8,s6

0000000080001fa4 <label_0_951>:
  asm volatile ("label_0_1140 :\n\t"); asm volatile ("LWU s6, -644 (s0)\n\t");
    80001fa4:	25d5                	addiw	a1,a1,21

0000000080001fa6 <label_0_952>:
  asm volatile ("label_0_1141 :\n\t"); asm volatile ("REMW t1, s2, a6\n\t");
    80001fa6:	005d809b          	addiw	ra,s11,5

0000000080001faa <label_0_953>:
  asm volatile ("label_0_1142 :\n\t"); asm volatile ("LD t2, -832 (s0)\n\t");
    80001faa:	2745                	addiw	a4,a4,17

0000000080001fac <label_0_954>:
  asm volatile ("label_0_1143 :\n\t");   asm volatile ("label_0_1144 :\n\t"); asm volatile ("ADDW s8, a7, s6\n\t");
    80001fac:	013e853b          	addw	a0,t4,s3

0000000080001fb0 <label_0_955>:
  asm volatile ("label_0_1145 :\n\t"); asm volatile ("SUBW a7, t0, a7\n\t");
    80001fb0:	0312693b          	remw	s2,tp,a7

0000000080001fb4 <label_0_956>:
  asm volatile ("label_0_1146 :\n\t"); asm volatile ("LD s6, -724 (s0)\n\t");
    80001fb4:	0212793b          	remuw	s2,tp,ra

0000000080001fb8 <label_0_957>:
  asm volatile ("label_0_1147 :\n\t"); asm volatile ("LD a2, -304 (s0)\n\t");
    80001fb8:	00fd809b          	addiw	ra,s11,15

0000000080001fbc <label_0_958>:
  asm volatile ("label_0_1148 :\n\t");   asm volatile ("label_0_1149 :\n\t"); asm volatile ("LD t5, -808 (s0)\n\t");
    80001fbc:	00b3073b          	addw	a4,t1,a1

0000000080001fc0 <label_0_959>:
  asm volatile ("label_0_1150 :\n\t"); asm volatile ("LWU a0, -88 (s0)\n\t");
    80001fc0:	024a7bbb          	remuw	s7,s4,tp

0000000080001fc4 <label_0_960>:
  asm volatile ("label_0_1151 :\n\t"); asm volatile ("REMUW s3, a3, t2\n\t");
    80001fc4:	9f05                	subw	a4,a4,s1

0000000080001fc6 <label_0_961>:
  asm volatile ("label_0_1152 :\n\t"); asm volatile ("SUBW a1, s6, t4\n\t");
    80001fc6:	40ef883b          	subw	a6,t6,a4

0000000080001fca <label_0_962>:
  asm volatile ("label_0_1153 :\n\t"); asm volatile ("LWU s9, -456 (s0)\n\t");
    80001fca:	02c9d73b          	divuw	a4,s3,a2

0000000080001fce <label_0_963>:
  asm volatile ("label_0_1154 :\n\t"); asm volatile ("DIVUW a0, s9, s4\n\t");
    80001fce:	03bb7dbb          	remuw	s11,s6,s11

0000000080001fd2 <label_0_964>:
  asm volatile ("label_0_1155 :\n\t"); asm volatile ("DIVUW s4, t2, a7\n\t");
    80001fd2:	025665bb          	remw	a1,a2,t0

0000000080001fd6 <label_0_965>:
  asm volatile ("label_0_1156 :\n\t"); asm volatile ("LWU s1, -628 (s0)\n\t");
    80001fd6:	036385bb          	mulw	a1,t2,s6

0000000080001fda <label_0_966>:
  asm volatile ("label_0_1157 :\n\t"); asm volatile ("C.SUBW a0, a1\n\t");
    80001fda:	9f31                	addw	a4,a4,a2

0000000080001fdc <label_0_967>:
  asm volatile ("label_0_1158 :\n\t");   asm volatile ("label_0_1159 :\n\t"); asm volatile ("C.SUBW a2, a2\n\t");
    80001fdc:	0253c6bb          	divw	a3,t2,t0

0000000080001fe0 <label_0_968>:
  asm volatile ("label_0_1160 :\n\t"); asm volatile ("MULW s7, t3, t1\n\t");
    80001fe0:	2735                	addiw	a4,a4,13

0000000080001fe2 <label_0_969>:
  asm volatile ("label_0_1161 :\n\t"); asm volatile ("ADDW t6, a4, ra\n\t");
    80001fe2:	03fe46bb          	divw	a3,t3,t6

0000000080001fe6 <label_0_970>:
  asm volatile ("label_0_1162 :\n\t"); asm volatile ("SUBW s11, t5, t0\n\t");
    80001fe6:	01c50a3b          	addw	s4,a0,t3

0000000080001fea <label_0_971>:
  asm volatile ("label_0_1163 :\n\t"); asm volatile ("LD a3, -352 (s0)\n\t");
    80001fea:	011c07bb          	addw	a5,s8,a7

0000000080001fee <label_0_972>:
  asm volatile ("label_0_1164 :\n\t"); asm volatile ("ADDW s6, a3, s7\n\t");
    80001fee:	24d5                	addiw	s1,s1,21

0000000080001ff0 <label_0_973>:
  asm volatile ("label_0_1165 :\n\t"); asm volatile ("ADDIW a2, ra, 0x1d\n\t");
    80001ff0:	270d                	addiw	a4,a4,3

0000000080001ff2 <label_0_974>:
  asm volatile ("label_0_1166 :\n\t"); asm volatile ("MULW s9, t6, a3\n\t");
    80001ff2:	014a859b          	addiw	a1,s5,20

0000000080001ff6 <label_0_975>:
  asm volatile ("label_0_1167 :\n\t"); asm volatile ("ADDIW a5, tp, 0x1e\n\t");
    80001ff6:	40ca00bb          	subw	ra,s4,a2

0000000080001ffa <label_0_976>:
  asm volatile ("label_0_1168 :\n\t");   asm volatile ("label_0_1169 :\n\t");   asm volatile ("label_0_1170 :\n\t"); asm volatile ("LD a1, -680 (s0)\n\t");
    80001ffa:	9e3d                	addw	a2,a2,a5

0000000080001ffc <label_0_977>:
  asm volatile ("label_0_1171 :\n\t"); asm volatile ("LD a4, -584 (s0)\n\t");
    80001ffc:	02b4ef3b          	remw	t5,s1,a1

0000000080002000 <label_0_978>:
  asm volatile ("label_0_1172 :\n\t"); asm volatile ("ADDIW t4, s11, 0x1a\n\t");
    80002000:	024bd03b          	divuw	zero,s7,tp

0000000080002004 <label_0_979>:
  asm volatile ("label_0_1173 :\n\t"); asm volatile ("DIVUW zero, s4, s4\n\t");
    80002004:	9f39                	addw	a4,a4,a4

0000000080002006 <label_0_980>:
  asm volatile ("label_0_1174 :\n\t"); asm volatile ("REMW a5, a2, s6\n\t");
    80002006:	014d071b          	addiw	a4,s10,20

000000008000200a <label_0_981>:
  asm volatile ("label_0_1175 :\n\t"); asm volatile ("LWU a0, -808 (s0)\n\t");
    8000200a:	9e3d                	addw	a2,a2,a5

000000008000200c <label_0_982>:
  asm volatile ("label_0_1176 :\n\t");   asm volatile ("label_0_1177 :\n\t");   asm volatile ("label_0_1178 :\n\t");   asm volatile ("label_0_1179 :\n\t"); asm volatile ("LD zero, -512 (s0)\n\t");
    8000200c:	0162869b          	addiw	a3,t0,22

0000000080002010 <label_0_983>:
  asm volatile ("label_0_1180 :\n\t"); asm volatile ("ADDIW a0, s7, 0xc\n\t");
    80002010:	03088ebb          	mulw	t4,a7,a6

0000000080002014 <label_0_984>:
  asm volatile ("label_0_1181 :\n\t"); asm volatile ("C.ADDIW a1, 0x9\n\t");
    80002014:	02a560bb          	remw	ra,a0,a0

0000000080002018 <label_0_985>:
  asm volatile ("label_0_1182 :\n\t");   asm volatile ("label_0_1183 :\n\t"); asm volatile ("LD s7, -216 (s0)\n\t");
    80002018:	2711                	addiw	a4,a4,4

000000008000201a <label_0_986>:
  asm volatile ("label_0_1184 :\n\t");   asm volatile ("label_0_1185 :\n\t"); asm volatile ("LWU s4, -320 (s0)\n\t");
    8000201a:	03e3c83b          	divw	a6,t2,t5

000000008000201e <label_0_987>:
  asm volatile ("label_0_1186 :\n\t"); asm volatile ("LWU a4, -380 (s0)\n\t");
    8000201e:	03ab0b3b          	mulw	s6,s6,s10

0000000080002022 <label_0_988>:
  asm volatile ("label_0_1187 :\n\t"); asm volatile ("LD a2, -108 (s0)\n\t");
    80002022:	02fc773b          	remuw	a4,s8,a5

0000000080002026 <label_0_989>:
  asm volatile ("label_0_1188 :\n\t"); asm volatile ("MULW t1, a5, zero\n\t");
    80002026:	9f9d                	subw	a5,a5,a5

0000000080002028 <label_0_990>:
  asm volatile ("label_0_1189 :\n\t");   asm volatile ("label_0_1190 :\n\t"); asm volatile ("ADDIW a7, s8, 0x11\n\t");
    80002028:	40f9823b          	subw	tp,s3,a5

000000008000202c <label_0_991>:
  asm volatile ("label_0_1191 :\n\t"); asm volatile ("C.ADDW a4, a0\n\t");
    8000202c:	02d2ce3b          	divw	t3,t0,a3

0000000080002030 <label_0_992>:
  asm volatile ("label_0_1192 :\n\t"); asm volatile ("ADDW t5, a5, ra\n\t");
    80002030:	2581                	sext.w	a1,a1

0000000080002032 <label_0_993>:
  asm volatile ("label_0_1193 :\n\t"); asm volatile ("LD s9, -840 (s0)\n\t");
    80002032:	02f3f0bb          	remuw	ra,t2,a5

0000000080002036 <label_0_994>:
  asm volatile ("label_0_1194 :\n\t"); asm volatile ("REMW s2, t5, a0\n\t");
    80002036:	9eb1                	addw	a3,a3,a2

0000000080002038 <label_0_995>:
  asm volatile ("label_0_1195 :\n\t"); asm volatile ("C.ADDIW a4, 0x18\n\t");
    80002038:	036ce73b          	remw	a4,s9,s6

000000008000203c <label_0_996>:
  asm volatile ("label_0_1196 :\n\t"); asm volatile ("LWU s8, -848 (s0)\n\t");
    8000203c:	03b5d63b          	divuw	a2,a1,s11

0000000080002040 <label_0_997>:
  asm volatile ("label_0_1197 :\n\t"); asm volatile ("REMUW tp, t4, s11\n\t");
    80002040:	03e768bb          	remw	a7,a4,t5

0000000080002044 <label_0_998>:
  asm volatile ("label_0_1198 :\n\t");   asm volatile ("label_0_1199 :\n\t"); asm volatile ("LWU t3, -860 (s0)\n\t");
    80002044:	031d803b          	mulw	zero,s11,a7

0000000080002048 <label_0_999>:
  asm volatile ("label_0_1200 :\n\t"); asm volatile ("DIVUW a2, a3, s8\n\t");
    80002048:	9d95                	subw	a1,a1,a3

000000008000204a <label_0_1000>:
  asm volatile ("label_0_1201 :\n\t"); asm volatile ("LWU s8, -212 (s0)\n\t");
    8000204a:	027d53bb          	divuw	t2,s10,t2

000000008000204e <label_0_1001>:
  asm volatile ("label_0_1202 :\n\t"); asm volatile ("C.SUBW a4, a3\n\t");
    8000204e:	02126d3b          	remw	s10,tp,ra

0000000080002052 <label_0_1002>:
  asm volatile ("label_0_1203 :\n\t"); asm volatile ("DIVUW a4, s8, t5\n\t");
    80002052:	024d88bb          	mulw	a7,s11,tp

0000000080002056 <label_0_1003>:
  asm volatile ("label_0_1204 :\n\t"); asm volatile ("C.ADDW a4, a3\n\t");
    80002056:	40fa033b          	subw	t1,s4,a5

000000008000205a <label_0_1004>:
  asm volatile ("label_0_1205 :\n\t"); asm volatile ("MULW t6, a1, t1\n\t");
    8000205a:	02f6803b          	mulw	zero,a3,a5

000000008000205e <label_0_1005>:
  asm volatile ("label_0_1206 :\n\t");   asm volatile ("label_0_1207 :\n\t");   asm volatile ("label_0_1208 :\n\t"); asm volatile ("LWU t3, -696 (s0)\n\t");
    8000205e:	9d31                	addw	a0,a0,a2

0000000080002060 <label_0_1006>:
  asm volatile ("label_0_1209 :\n\t"); asm volatile ("LWU ra, -672 (s0)\n\t");
    80002060:	2751                	addiw	a4,a4,20

0000000080002062 <label_0_1007>:
  asm volatile ("label_0_1210 :\n\t"); asm volatile ("LWU t4, -244 (s0)\n\t");
    80002062:	034f50bb          	divuw	ra,t5,s4

0000000080002066 <label_0_1008>:
  asm volatile ("label_0_1211 :\n\t"); asm volatile ("REMW s11, s7, s3\n\t");
    80002066:	000f033b          	addw	t1,t5,zero

000000008000206a <label_0_1009>:
  asm volatile ("label_0_1212 :\n\t"); asm volatile ("C.ADDW a4, s1\n\t");
    8000206a:	9d15                	subw	a0,a0,a3

000000008000206c <label_0_1010>:
  asm volatile ("label_0_1213 :\n\t"); asm volatile ("LWU a6, -568 (s0)\n\t");
    8000206c:	02674fbb          	divw	t6,a4,t1

0000000080002070 <label_0_1011>:
  asm volatile ("label_0_1214 :\n\t"); asm volatile ("C.SUBW a0, a4\n\t");
    80002070:	9fb1                	addw	a5,a5,a2

0000000080002072 <label_0_1012>:
  asm volatile ("label_0_1215 :\n\t"); asm volatile ("LD t4, -280 (s0)\n\t");
    80002072:	26c9                	addiw	a3,a3,18

0000000080002074 <label_0_1013>:
  asm volatile ("label_0_1216 :\n\t"); asm volatile ("C.ADDIW s1, 0x1e\n\t");
    80002074:	0366c7bb          	divw	a5,a3,s6

0000000080002078 <label_0_1014>:
  asm volatile ("label_0_1217 :\n\t"); asm volatile ("ADDW a1, a1, a0\n\t");
    80002078:	41208c3b          	subw	s8,ra,s2

000000008000207c <label_0_1015>:
  asm volatile ("label_0_1218 :\n\t"); asm volatile ("C.ADDW a4, a5\n\t");
    8000207c:	274d                	addiw	a4,a4,19

000000008000207e <label_0_1016>:
  asm volatile ("label_0_1219 :\n\t"); asm volatile ("LWU t1, -28 (s0)\n\t");
    8000207e:	9e15                	subw	a2,a2,a3

0000000080002080 <label_0_1017>:
  asm volatile ("label_0_1220 :\n\t"); asm volatile ("C.ADDIW a5, 0x16\n\t");
    80002080:	016682bb          	addw	t0,a3,s6

0000000080002084 <label_0_1018>:
  asm volatile ("label_0_1221 :\n\t");   asm volatile ("label_0_1222 :\n\t"); asm volatile ("LWU a6, -624 (s0)\n\t");
    80002084:	0205e0bb          	remw	ra,a1,zero

0000000080002088 <label_0_1019>:
  asm volatile ("label_0_1223 :\n\t"); asm volatile ("DIVUW s8, s11, ra\n\t");
    80002088:	9e05                	subw	a2,a2,s1

000000008000208a <label_0_1020>:
  asm volatile ("label_0_1224 :\n\t"); asm volatile ("LWU a4, -840 (s0)\n\t");
    8000208a:	9d2d                	addw	a0,a0,a1

000000008000208c <label_0_1021>:
  asm volatile ("label_0_1225 :\n\t"); asm volatile ("ADDW s7, s5, s2\n\t");
    8000208c:	0063009b          	addiw	ra,t1,6

0000000080002090 <label_0_1022>:
  asm volatile ("label_0_1226 :\n\t"); asm volatile ("MULW s4, s8, s1\n\t");
    80002090:	0322c2bb          	divw	t0,t0,s2

0000000080002094 <label_0_1023>:
  asm volatile ("label_0_1227 :\n\t"); asm volatile ("SUBW a5, a2, tp\n\t");
    80002094:	03457c3b          	remuw	s8,a0,s4

0000000080002098 <label_0_1024>:
  asm volatile ("label_0_1228 :\n\t"); asm volatile ("ADDIW t0, a3, 0x1f\n\t");
    80002098:	00f6879b          	addiw	a5,a3,15

000000008000209c <label_0_1025>:
  asm volatile ("label_0_1229 :\n\t"); asm volatile ("REMUW s9, s4, t6\n\t");
    8000209c:	9d99                	subw	a1,a1,a4

000000008000209e <label_0_1026>:
  asm volatile ("label_0_1230 :\n\t"); asm volatile ("DIVUW ra, a6, s8\n\t");
    8000209e:	032cd9bb          	divuw	s3,s9,s2

00000000800020a2 <label_0_1027>:
  asm volatile ("label_0_1231 :\n\t"); asm volatile ("LD a1, -416 (s0)\n\t");
    800020a2:	404e82bb          	subw	t0,t4,tp

00000000800020a6 <label_0_1028>:
  asm volatile ("label_0_1232 :\n\t"); asm volatile ("C.ADDW a4, a3\n\t");
    800020a6:	03dfffbb          	remuw	t6,t6,t4

00000000800020aa <label_0_1029>:
  asm volatile ("label_0_1233 :\n\t"); asm volatile ("ADDIW t5, a6, 0xc\n\t");
    800020aa:	9f25                	addw	a4,a4,s1

00000000800020ac <label_0_1030>:
  asm volatile ("label_0_1234 :\n\t"); asm volatile ("LWU ra, -48 (s0)\n\t");
    800020ac:	0397d53b          	divuw	a0,a5,s9

00000000800020b0 <label_0_1031>:
  asm volatile ("label_0_1235 :\n\t"); asm volatile ("ADDIW s7, a5, 0x1a\n\t");
    800020b0:	009f8b1b          	addiw	s6,t6,9

00000000800020b4 <label_0_1032>:
  asm volatile ("label_0_1236 :\n\t"); asm volatile ("ADDIW a5, tp, 0xc\n\t");
    800020b4:	9f2d                	addw	a4,a4,a1

00000000800020b6 <label_0_1033>:
  asm volatile ("label_0_1237 :\n\t"); asm volatile ("LD a3, -36 (s0)\n\t");
    800020b6:	2499                	addiw	s1,s1,6

00000000800020b8 <label_0_1034>:
  asm volatile ("label_0_1238 :\n\t"); asm volatile ("C.ADDW s1, s1\n\t");
    800020b8:	27a5                	addiw	a5,a5,9

00000000800020ba <label_0_1035>:
  asm volatile ("label_0_1239 :\n\t"); asm volatile ("REMW ra, a5, zero\n\t");
    800020ba:	0299ce3b          	divw	t3,s3,s1

00000000800020be <label_0_1036>:
  asm volatile ("label_0_1240 :\n\t"); asm volatile ("LD s7, -756 (s0)\n\t");
    800020be:	9e05                	subw	a2,a2,s1

00000000800020c0 <label_0_1037>:
  asm volatile ("label_0_1241 :\n\t"); asm volatile ("LD a7, -416 (s0)\n\t");
    800020c0:	9fa9                	addw	a5,a5,a0

00000000800020c2 <label_0_1038>:
  asm volatile ("label_0_1242 :\n\t");   asm volatile ("label_0_1243 :\n\t"); asm volatile ("ADDIW s11, s7, 0x12\n\t");
    800020c2:	03dee3bb          	remw	t2,t4,t4

00000000800020c6 <label_0_1039>:
  asm volatile ("label_0_1244 :\n\t"); asm volatile ("LD a3, -344 (s0)\n\t");
    800020c6:	025704bb          	mulw	s1,a4,t0

00000000800020ca <label_0_1040>:
  asm volatile ("label_0_1245 :\n\t"); asm volatile ("C.ADDW s1, a1\n\t");
    800020ca:	9fad                	addw	a5,a5,a1

00000000800020cc <label_0_1041>:
  asm volatile ("label_0_1246 :\n\t"); asm volatile ("REMW t4, s10, a6\n\t");
    800020cc:	9e05                	subw	a2,a2,s1

00000000800020ce <label_0_1042>:
  asm volatile ("label_0_1247 :\n\t");   asm volatile ("label_0_1248 :\n\t"); asm volatile ("LD a4, -712 (s0)\n\t");
    800020ce:	2751                	addiw	a4,a4,20

00000000800020d0 <label_0_1043>:
  asm volatile ("label_0_1249 :\n\t");   asm volatile ("label_0_1250 :\n\t"); asm volatile ("ADDIW ra, a7, 0x15\n\t");
    800020d0:	032ed83b          	divuw	a6,t4,s2

00000000800020d4 <label_0_1044>:
  asm volatile ("label_0_1251 :\n\t"); asm volatile ("LD a7, -308 (s0)\n\t");
    800020d4:	01ad821b          	addiw	tp,s11,26

00000000800020d8 <label_0_1045>:
  asm volatile ("label_0_1252 :\n\t"); asm volatile ("DIVW t6, a2, s7\n\t");
    800020d8:	404c0f3b          	subw	t5,s8,tp

00000000800020dc <label_0_1046>:
  asm volatile ("label_0_1253 :\n\t"); asm volatile ("REMW s4, a3, t6\n\t");
    800020dc:	00708b9b          	addiw	s7,ra,7

00000000800020e0 <label_0_1047>:
  asm volatile ("label_0_1254 :\n\t");   asm volatile ("label_0_1255 :\n\t"); asm volatile ("SUBW s8, t2, s3\n\t");
    800020e0:	415d07bb          	subw	a5,s10,s5

00000000800020e4 <label_0_1048>:
  asm volatile ("label_0_1256 :\n\t"); asm volatile ("DIVW s10, a0, a1\n\t");
    800020e4:	9e29                	addw	a2,a2,a0

00000000800020e6 <label_0_1049>:
  asm volatile ("label_0_1257 :\n\t");   asm volatile ("label_0_1258 :\n\t"); asm volatile ("LD t4, -732 (s0)\n\t");
    800020e6:	0184809b          	addiw	ra,s1,24

00000000800020ea <label_0_1050>:
  asm volatile ("label_0_1259 :\n\t"); asm volatile ("SUBW s2, a1, t4\n\t");
    800020ea:	40af89bb          	subw	s3,t6,a0

00000000800020ee <label_0_1051>:
  asm volatile ("label_0_1260 :\n\t"); asm volatile ("LWU s2, -560 (s0)\n\t");
    800020ee:	279d                	addiw	a5,a5,7

00000000800020f0 <label_0_1052>:
  asm volatile ("label_0_1261 :\n\t"); asm volatile ("LWU s1, -400 (s0)\n\t");
    800020f0:	9e15                	subw	a2,a2,a3

00000000800020f2 <label_0_1053>:
  asm volatile ("label_0_1262 :\n\t"); asm volatile ("ADDIW s4, s2, 0x2\n\t");
    800020f2:	038a70bb          	remuw	ra,s4,s8

00000000800020f6 <label_0_1054>:
  asm volatile ("label_0_1263 :\n\t");   asm volatile ("label_0_1264 :\n\t"); asm volatile ("LD ra, -228 (s0)\n\t");
    800020f6:	258d                	addiw	a1,a1,3

00000000800020f8 <label_0_1055>:
  asm volatile ("label_0_1265 :\n\t"); asm volatile ("DIVUW s8, t3, s4\n\t");
    800020f8:	02bad5bb          	divuw	a1,s5,a1

00000000800020fc <label_0_1056>:
  asm volatile ("label_0_1266 :\n\t"); asm volatile ("MULW a3, s11, t6\n\t");
    800020fc:	2651                	addiw	a2,a2,20

00000000800020fe <label_0_1057>:
  asm volatile ("label_0_1267 :\n\t"); asm volatile ("ADDIW t1, t5, 0x1c\n\t");
    800020fe:	03ec0dbb          	mulw	s11,s8,t5

0000000080002102 <label_0_1058>:
  asm volatile ("label_0_1268 :\n\t"); asm volatile ("LD t5, -252 (s0)\n\t");
    80002102:	9db5                	addw	a1,a1,a3

0000000080002104 <label_0_1059>:
  asm volatile ("label_0_1269 :\n\t"); asm volatile ("MULW t6, s10, tp\n\t");
    80002104:	03adf0bb          	remuw	ra,s11,s10

0000000080002108 <label_0_1060>:
  asm volatile ("label_0_1270 :\n\t");   asm volatile ("label_0_1271 :\n\t"); asm volatile ("LD t3, -132 (s0)\n\t");
    80002108:	27c9                	addiw	a5,a5,18

000000008000210a <label_0_1061>:
  asm volatile ("label_0_1272 :\n\t"); asm volatile ("LD s9, -216 (s0)\n\t");
    8000210a:	9da5                	addw	a1,a1,s1

000000008000210c <label_0_1062>:
  asm volatile ("label_0_1273 :\n\t"); asm volatile ("LWU t0, -524 (s0)\n\t");
    8000210c:	02eb83bb          	mulw	t2,s7,a4

0000000080002110 <label_0_1063>:
  asm volatile ("label_0_1274 :\n\t");   asm volatile ("label_0_1275 :\n\t");   asm volatile ("label_0_1276 :\n\t"); asm volatile ("LD t1, -848 (s0)\n\t");
    80002110:	02d0493b          	divw	s2,zero,a3

0000000080002114 <label_0_1064>:
  asm volatile ("label_0_1277 :\n\t"); asm volatile ("LWU t5, -892 (s0)\n\t");
    80002114:	40500c3b          	negw	s8,t0

0000000080002118 <label_0_1065>:
  asm volatile ("label_0_1278 :\n\t"); asm volatile ("ADDIW s11, s3, 0x8\n\t");
    80002118:	9d09                	subw	a0,a0,a0

000000008000211a <label_0_1066>:
  asm volatile ("label_0_1279 :\n\t");   asm volatile ("label_0_1280 :\n\t"); asm volatile ("C.ADDW a0, a3\n\t");
    8000211a:	03edf7bb          	remuw	a5,s11,t5

000000008000211e <label_0_1067>:
  asm volatile ("label_0_1281 :\n\t"); asm volatile ("LWU a7, -524 (s0)\n\t");
    8000211e:	03dd493b          	divw	s2,s10,t4

0000000080002122 <label_0_1068>:
  asm volatile ("label_0_1282 :\n\t"); asm volatile ("ADDW s4, a7, s2\n\t");
    80002122:	9cad                	addw	s1,s1,a1

0000000080002124 <label_0_1069>:
  asm volatile ("label_0_1283 :\n\t");   asm volatile ("label_0_1284 :\n\t"); asm volatile ("REMUW tp, ra, t4\n\t");
    80002124:	2661                	addiw	a2,a2,24

0000000080002126 <label_0_1070>:
  asm volatile ("label_0_1285 :\n\t"); asm volatile ("DIVUW t6, a5, t5\n\t");
    80002126:	03956ebb          	remw	t4,a0,s9

000000008000212a <label_0_1071>:
  asm volatile ("label_0_1286 :\n\t"); asm volatile ("LD s7, -632 (s0)\n\t");
    8000212a:	008a071b          	addiw	a4,s4,8

000000008000212e <label_0_1072>:
  asm volatile ("label_0_1287 :\n\t"); asm volatile ("LD zero, -864 (s0)\n\t");
    8000212e:	0358ce3b          	divw	t3,a7,s5

0000000080002132 <label_0_1073>:
  asm volatile ("label_0_1288 :\n\t");   asm volatile ("label_0_1289 :\n\t"); asm volatile ("SUBW t2, tp, t1\n\t");
    80002132:	038665bb          	remw	a1,a2,s8

0000000080002136 <label_0_1074>:
  asm volatile ("label_0_1290 :\n\t"); asm volatile ("REMW t0, a6, t6\n\t");
    80002136:	00aa801b          	addiw	zero,s5,10

000000008000213a <label_0_1075>:
  asm volatile ("label_0_1291 :\n\t");   asm volatile ("label_0_1292 :\n\t");   asm volatile ("label_0_1293 :\n\t"); asm volatile ("C.ADDW a1, a3\n\t");
    8000213a:	0268c93b          	divw	s2,a7,t1

000000008000213e <label_0_1076>:
  asm volatile ("label_0_1294 :\n\t"); asm volatile ("C.ADDW a3, a3\n\t");
    8000213e:	01ff04bb          	addw	s1,t5,t6

0000000080002142 <label_0_1077>:
  asm volatile ("label_0_1295 :\n\t"); asm volatile ("REMW s7, s6, a6\n\t");
    80002142:	02e480bb          	mulw	ra,s1,a4

0000000080002146 <label_0_1078>:
  asm volatile ("label_0_1296 :\n\t");   asm volatile ("label_0_1297 :\n\t"); asm volatile ("SUBW zero, s9, s7\n\t");
    80002146:	03406c3b          	remw	s8,zero,s4

000000008000214a <label_0_1079>:
  asm volatile ("label_0_1298 :\n\t"); asm volatile ("REMUW a3, a7, s8\n\t");
    8000214a:	2791                	addiw	a5,a5,4

000000008000214c <label_0_1080>:
  asm volatile ("label_0_1299 :\n\t"); asm volatile ("LWU s2, -376 (s0)\n\t");
    8000214c:	02aeed3b          	remw	s10,t4,a0

0000000080002150 <label_0_1081>:
  asm volatile ("label_0_1300 :\n\t"); asm volatile ("C.SUBW a4, a5\n\t");
    80002150:	03ac07bb          	mulw	a5,s8,s10

0000000080002154 <label_0_1082>:
  asm volatile ("label_0_1301 :\n\t"); asm volatile ("C.ADDIW a3, 0x11\n\t");
    80002154:	027a68bb          	remw	a7,s4,t2

0000000080002158 <label_0_1083>:
  asm volatile ("label_0_1302 :\n\t");   asm volatile ("label_0_1303 :\n\t"); asm volatile ("ADDW s7, t4, s4\n\t");
    80002158:	027bd8bb          	divuw	a7,s7,t2

000000008000215c <label_0_1084>:
  asm volatile ("label_0_1304 :\n\t");   asm volatile ("label_0_1305 :\n\t"); asm volatile ("LWU a4, -752 (s0)\n\t");
    8000215c:	03eedbbb          	divuw	s7,t4,t5

0000000080002160 <label_0_1085>:
  asm volatile ("label_0_1306 :\n\t"); asm volatile ("MULW a3, s11, s7\n\t");
    80002160:	030a00bb          	mulw	ra,s4,a6

0000000080002164 <label_0_1086>:
  asm volatile ("label_0_1307 :\n\t"); asm volatile ("C.ADDW a3, a3\n\t");
    80002164:	00f28d1b          	addiw	s10,t0,15

0000000080002168 <label_0_1087>:
  asm volatile ("label_0_1308 :\n\t"); asm volatile ("MULW t2, s8, a5\n\t");
    80002168:	02d48b3b          	mulw	s6,s1,a3

000000008000216c <label_0_1088>:
  asm volatile ("label_0_1309 :\n\t"); asm volatile ("REMUW s11, t3, t5\n\t");
    8000216c:	024f86bb          	mulw	a3,t6,tp

0000000080002170 <label_0_1089>:
  asm volatile ("label_0_1310 :\n\t"); asm volatile ("C.ADDW a0, a0\n\t");
    80002170:	273d                	addiw	a4,a4,15

0000000080002172 <label_0_1090>:
  asm volatile ("label_0_1311 :\n\t"); asm volatile ("C.ADDIW s1, 0x3\n\t");
    80002172:	9e19                	subw	a2,a2,a4

0000000080002174 <label_0_1091>:
  asm volatile ("label_0_1312 :\n\t"); asm volatile ("DIVW tp, ra, t0\n\t");
    80002174:	9e05                	subw	a2,a2,s1

0000000080002176 <label_0_1092>:
  asm volatile ("label_0_1313 :\n\t");   asm volatile ("label_0_1314 :\n\t"); asm volatile ("C.ADDIW a1, 0x1\n\t");
    80002176:	0306c3bb          	divw	t2,a3,a6

000000008000217a <label_0_1093>:
  asm volatile ("label_0_1315 :\n\t");   asm volatile ("label_0_1316 :\n\t"); asm volatile ("SUBW zero, s4, t5\n\t");
    8000217a:	40c984bb          	subw	s1,s3,a2

000000008000217e <label_0_1094>:
  asm volatile ("label_0_1317 :\n\t");   asm volatile ("label_0_1318 :\n\t");   asm volatile ("label_0_1319 :\n\t"); asm volatile ("DIVW s4, s4, s4\n\t");
    8000217e:	2689                	addiw	a3,a3,2

0000000080002180 <label_0_1095>:
  asm volatile ("label_0_1320 :\n\t"); asm volatile ("REMUW a0, t0, s8\n\t");
    80002180:	26a9                	addiw	a3,a3,10

0000000080002182 <label_0_1096>:
  asm volatile ("label_0_1321 :\n\t"); asm volatile ("LD s7, -580 (s0)\n\t");
    80002182:	41a50bbb          	subw	s7,a0,s10

0000000080002186 <label_0_1097>:
  asm volatile ("label_0_1322 :\n\t"); asm volatile ("LWU s4, -180 (s0)\n\t");
    80002186:	9eb5                	addw	a3,a3,a3

0000000080002188 <label_0_1098>:
  asm volatile ("label_0_1323 :\n\t"); asm volatile ("LWU s2, -796 (s0)\n\t");
    80002188:	0186003b          	addw	zero,a2,s8

000000008000218c <label_0_1099>:
  asm volatile ("label_0_1324 :\n\t");   asm volatile ("label_0_1325 :\n\t"); asm volatile ("REMUW zero, t3, s11\n\t");
    8000218c:	26bd                	addiw	a3,a3,15

000000008000218e <label_0_1100>:
  asm volatile ("label_0_1326 :\n\t"); asm volatile ("MULW t1, s1, t4\n\t");
    8000218e:	9d89                	subw	a1,a1,a0

0000000080002190 <label_0_1101>:
  asm volatile ("label_0_1327 :\n\t"); asm volatile ("REMUW s10, t0, t2\n\t");
    80002190:	00428d3b          	addw	s10,t0,tp

0000000080002194 <label_0_1102>:
  asm volatile ("label_0_1328 :\n\t"); asm volatile ("DIVW a1, t5, a3\n\t");
    80002194:	02a8c73b          	divw	a4,a7,a0

0000000080002198 <label_0_1103>:
  asm volatile ("label_0_1329 :\n\t"); asm volatile ("LD a5, -296 (s0)\n\t");
    80002198:	410f0e3b          	subw	t3,t5,a6

000000008000219c <label_0_1104>:
  asm volatile ("label_0_1330 :\n\t"); asm volatile ("REMW tp, a0, a3\n\t");
    8000219c:	01d50d9b          	addiw	s11,a0,29

00000000800021a0 <label_0_1105>:
  asm volatile ("label_0_1331 :\n\t");   asm volatile ("label_0_1332 :\n\t"); asm volatile ("REMW s8, t6, s5\n\t");
    800021a0:	9e0d                	subw	a2,a2,a1

00000000800021a2 <label_0_1106>:
  asm volatile ("label_0_1333 :\n\t"); asm volatile ("LD t3, -400 (s0)\n\t");
    800021a2:	9f39                	addw	a4,a4,a4

00000000800021a4 <label_0_1107>:
  asm volatile ("label_0_1334 :\n\t"); asm volatile ("SUBW t5, s1, s2\n\t");
    800021a4:	0264f03b          	remuw	zero,s1,t1

00000000800021a8 <label_0_1108>:
  asm volatile ("label_0_1335 :\n\t");   asm volatile ("label_0_1336 :\n\t"); asm volatile ("REMW s3, a4, t0\n\t");
    800021a8:	02ce03bb          	mulw	t2,t3,a2

00000000800021ac <label_0_1109>:
  asm volatile ("label_0_1337 :\n\t"); asm volatile ("ADDIW a3, t5, 0x6\n\t");
    800021ac:	025af7bb          	remuw	a5,s5,t0

00000000800021b0 <label_0_1110>:
  asm volatile ("label_0_1338 :\n\t");   asm volatile ("label_0_1339 :\n\t"); asm volatile ("LD s2, -796 (s0)\n\t");
    800021b0:	0384f8bb          	remuw	a7,s1,s8

00000000800021b4 <label_0_1111>:
  asm volatile ("label_0_1340 :\n\t"); asm volatile ("REMUW a3, a0, s3\n\t");
    800021b4:	030f6a3b          	remw	s4,t5,a6

00000000800021b8 <label_0_1112>:
  asm volatile ("label_0_1341 :\n\t");   asm volatile ("label_0_1342 :\n\t");   asm volatile ("label_0_1343 :\n\t"); asm volatile ("C.ADDIW a1, 0x19\n\t");
    800021b8:	032a40bb          	divw	ra,s4,s2

00000000800021bc <label_0_1113>:
  asm volatile ("label_0_1344 :\n\t"); asm volatile ("MULW t1, s8, t0\n\t");
    800021bc:	012906bb          	addw	a3,s2,s2

00000000800021c0 <label_0_1114>:
  asm volatile ("label_0_1345 :\n\t"); asm volatile ("DIVUW s4, a4, s5\n\t");
    800021c0:	034e53bb          	divuw	t2,t3,s4

00000000800021c4 <label_0_1115>:
  asm volatile ("label_0_1346 :\n\t"); asm volatile ("ADDIW a3, t5, 0x16\n\t");
    800021c4:	0216f5bb          	remuw	a1,a3,ra

00000000800021c8 <label_0_1116>:
  asm volatile ("label_0_1347 :\n\t"); asm volatile ("LD zero, -116 (s0)\n\t");
    800021c8:	000b8a9b          	sext.w	s5,s7

00000000800021cc <label_0_1117>:
  asm volatile ("label_0_1348 :\n\t"); asm volatile ("LD t5, -164 (s0)\n\t");
    800021cc:	2759                	addiw	a4,a4,22

00000000800021ce <label_0_1118>:
  asm volatile ("label_0_1349 :\n\t"); asm volatile ("C.ADDW a0, a3\n\t");
    800021ce:	0008079b          	sext.w	a5,a6

00000000800021d2 <label_0_1119>:
  asm volatile ("label_0_1350 :\n\t"); asm volatile ("ADDW s3, a1, a3\n\t");
    800021d2:	03a5403b          	divw	zero,a0,s10

00000000800021d6 <label_0_1120>:
  asm volatile ("label_0_1351 :\n\t");   asm volatile ("label_0_1352 :\n\t"); asm volatile ("LD a7, -116 (s0)\n\t");
    800021d6:	0302cbbb          	divw	s7,t0,a6

00000000800021da <label_0_1121>:
  asm volatile ("label_0_1353 :\n\t"); asm volatile ("LD t3, -836 (s0)\n\t");
    800021da:	03c387bb          	mulw	a5,t2,t3

00000000800021de <label_0_1122>:
  asm volatile ("label_0_1354 :\n\t"); asm volatile ("LWU a7, -608 (s0)\n\t");
    800021de:	02b4fbbb          	remuw	s7,s1,a1

00000000800021e2 <label_0_1123>:
  asm volatile ("label_0_1355 :\n\t"); asm volatile ("ADDIW t3, t4, 0x18\n\t");
    800021e2:	035b7b3b          	remuw	s6,s6,s5

00000000800021e6 <label_0_1124>:
  asm volatile ("label_0_1356 :\n\t");   asm volatile ("label_0_1357 :\n\t"); asm volatile ("LWU s3, -668 (s0)\n\t");
    800021e6:	02a94bbb          	divw	s7,s2,a0

00000000800021ea <label_0_1125>:
  asm volatile ("label_0_1358 :\n\t"); asm volatile ("LWU s4, -444 (s0)\n\t");
    800021ea:	0359833b          	mulw	t1,s3,s5

00000000800021ee <label_0_1126>:
  asm volatile ("label_0_1359 :\n\t");   asm volatile ("label_0_1360 :\n\t"); asm volatile ("DIVUW a3, s7, t2\n\t");
    800021ee:	0394f5bb          	remuw	a1,s1,s9

00000000800021f2 <label_0_1127>:
  asm volatile ("label_0_1361 :\n\t"); asm volatile ("DIVW s2, a2, ra\n\t");
    800021f2:	41ea823b          	subw	tp,s5,t5

00000000800021f6 <label_0_1128>:
  asm volatile ("label_0_1362 :\n\t"); asm volatile ("ADDW t5, s10, a2\n\t");
    800021f6:	02635fbb          	divuw	t6,t1,t1

00000000800021fa <label_0_1129>:
  asm volatile ("label_0_1363 :\n\t");   asm volatile ("label_0_1364 :\n\t"); asm volatile ("LWU t1, -344 (s0)\n\t");
    800021fa:	019f059b          	addiw	a1,t5,25

00000000800021fe <label_0_1130>:
  asm volatile ("label_0_1365 :\n\t"); asm volatile ("DIVW a1, t6, t1\n\t");
    800021fe:	039d423b          	divw	tp,s10,s9

0000000080002202 <label_0_1131>:
  asm volatile ("label_0_1366 :\n\t"); asm volatile ("REMUW a6, t2, s11\n\t");
    80002202:	03f9763b          	remuw	a2,s2,t6

0000000080002206 <label_0_1132>:
  asm volatile ("label_0_1367 :\n\t"); asm volatile ("ADDIW s2, a4, 0x9\n\t");
    80002206:	02a30ebb          	mulw	t4,t1,a0

000000008000220a <label_0_1133>:
  asm volatile ("label_0_1368 :\n\t");   asm volatile ("label_0_1369 :\n\t"); asm volatile ("LWU a0, -512 (s0)\n\t");
    8000220a:	031204bb          	mulw	s1,tp,a7

000000008000220e <label_0_1134>:
  asm volatile ("label_0_1370 :\n\t"); asm volatile ("MULW s10, t0, t6\n\t");
    8000220e:	02a6ff3b          	remuw	t5,a3,a0

0000000080002212 <label_0_1135>:
  asm volatile ("label_0_1371 :\n\t"); asm volatile ("MULW a0, a3, s10\n\t");
    80002212:	00a2839b          	addiw	t2,t0,10

0000000080002216 <label_0_1136>:
  asm volatile ("label_0_1372 :\n\t"); asm volatile ("LWU a6, -564 (s0)\n\t");
    80002216:	034dfabb          	remuw	s5,s11,s4

000000008000221a <label_0_1137>:
  asm volatile ("label_0_1373 :\n\t");   asm volatile ("label_0_1374 :\n\t"); asm volatile ("LD s8, -736 (s0)\n\t");
    8000221a:	03b35c3b          	divuw	s8,t1,s11

000000008000221e <label_0_1138>:
  asm volatile ("label_0_1375 :\n\t"); asm volatile ("LD s8, -100 (s0)\n\t");
    8000221e:	01120bbb          	addw	s7,tp,a7

0000000080002222 <label_0_1139>:
  asm volatile ("label_0_1376 :\n\t"); asm volatile ("ADDIW a2, a7, 0x15\n\t");
    80002222:	030345bb          	divw	a1,t1,a6

0000000080002226 <label_0_1140>:
  asm volatile ("label_0_1377 :\n\t");   asm volatile ("label_0_1378 :\n\t"); asm volatile ("SUBW s7, t2, zero\n\t");
    80002226:	9e35                	addw	a2,a2,a3

0000000080002228 <label_0_1141>:
  asm volatile ("label_0_1379 :\n\t"); asm volatile ("LWU tp, -184 (s0)\n\t");
    80002228:	01238e3b          	addw	t3,t2,s2

000000008000222c <label_0_1142>:
  asm volatile ("label_0_1380 :\n\t"); asm volatile ("SUBW a1, t5, s2\n\t");
    8000222c:	02cf463b          	divw	a2,t5,a2

0000000080002230 <label_0_1143>:
  asm volatile ("label_0_1381 :\n\t"); asm volatile ("LD a6, -752 (s0)\n\t");
    80002230:	9e1d                	subw	a2,a2,a5

0000000080002232 <label_0_1144>:
  asm volatile ("label_0_1382 :\n\t"); asm volatile ("LD a0, -256 (s0)\n\t");
    80002232:	032c70bb          	remuw	ra,s8,s2

0000000080002236 <label_0_1145>:
  asm volatile ("label_0_1383 :\n\t"); asm volatile ("ADDIW tp, t3, 0x14\n\t");
    80002236:	007b091b          	addiw	s2,s6,7

000000008000223a <label_0_1146>:
  asm volatile ("label_0_1384 :\n\t"); asm volatile ("LD s2, -804 (s0)\n\t");
    8000223a:	41be8dbb          	subw	s11,t4,s11

000000008000223e <label_0_1147>:
  asm volatile ("label_0_1385 :\n\t"); asm volatile ("LD ra, -516 (s0)\n\t");
    8000223e:	03aa8c3b          	mulw	s8,s5,s10

0000000080002242 <label_0_1148>:
  asm volatile ("label_0_1386 :\n\t"); asm volatile ("SUBW s6, a5, t2\n\t");
    80002242:	03c658bb          	divuw	a7,a2,t3

0000000080002246 <label_0_1149>:
  asm volatile ("label_0_1387 :\n\t"); asm volatile ("C.ADDIW a5, 0xc\n\t");
    80002246:	26d1                	addiw	a3,a3,20

0000000080002248 <label_0_1150>:
  asm volatile ("label_0_1388 :\n\t"); asm volatile ("LWU t5, -256 (s0)\n\t");
    80002248:	9e2d                	addw	a2,a2,a1

000000008000224a <label_0_1151>:
  asm volatile ("label_0_1389 :\n\t"); asm volatile ("SUBW t6, t5, a1\n\t");
    8000224a:	9d11                	subw	a0,a0,a2

000000008000224c <label_0_1152>:
  asm volatile ("label_0_1390 :\n\t"); asm volatile ("LWU t1, -764 (s0)\n\t");
    8000224c:	0305503b          	divuw	zero,a0,a6

0000000080002250 <label_0_1153>:
  asm volatile ("label_0_1391 :\n\t");   asm volatile ("label_0_1392 :\n\t");   asm volatile ("label_0_1393 :\n\t"); asm volatile ("LD s2, -96 (s0)\n\t");
    80002250:	02dc633b          	remw	t1,s8,a3

0000000080002254 <label_0_1154>:
  asm volatile ("label_0_1394 :\n\t"); asm volatile ("LD s1, -812 (s0)\n\t");
    80002254:	01a5893b          	addw	s2,a1,s10

0000000080002258 <label_0_1155>:
  asm volatile ("label_0_1395 :\n\t"); asm volatile ("REMUW s10, t2, s4\n\t");
    80002258:	00798dbb          	addw	s11,s3,t2

000000008000225c <label_0_1156>:
  asm volatile ("label_0_1396 :\n\t"); asm volatile ("LWU a0, -28 (s0)\n\t");
    8000225c:	0366063b          	mulw	a2,a2,s6

0000000080002260 <label_0_1157>:
  asm volatile ("label_0_1397 :\n\t"); asm volatile ("LD a7, -832 (s0)\n\t");
    80002260:	41c58dbb          	subw	s11,a1,t3

0000000080002264 <label_0_1158>:
  asm volatile ("label_0_1398 :\n\t"); asm volatile ("C.ADDW a2, a4\n\t");
    80002264:	40b689bb          	subw	s3,a3,a1

0000000080002268 <label_0_1159>:
  asm volatile ("label_0_1399 :\n\t"); asm volatile ("REMW a5, t6, a0\n\t");
    80002268:	03cf4e3b          	divw	t3,t5,t3

000000008000226c <label_0_1160>:
  asm volatile ("label_0_1400 :\n\t");   asm volatile ("label_0_1401 :\n\t");   asm volatile ("label_0_1402 :\n\t"); asm volatile ("LD a6, -688 (s0)\n\t");
    8000226c:	01e90fbb          	addw	t6,s2,t5

0000000080002270 <label_0_1161>:
  asm volatile ("label_0_1403 :\n\t");   asm volatile ("label_0_1404 :\n\t"); asm volatile ("MULW a2, t2, s3\n\t");
    80002270:	02d7793b          	remuw	s2,a4,a3

0000000080002274 <label_0_1162>:
  asm volatile ("label_0_1405 :\n\t"); asm volatile ("LD a0, -316 (s0)\n\t");
    80002274:	01620cbb          	addw	s9,tp,s6

0000000080002278 <label_0_1163>:
  asm volatile ("label_0_1406 :\n\t"); asm volatile ("C.ADDIW a2, 0x13\n\t");
    80002278:	0368d7bb          	divuw	a5,a7,s6

000000008000227c <label_0_1164>:
  asm volatile ("label_0_1407 :\n\t"); asm volatile ("LD s3, -792 (s0)\n\t");
    8000227c:	010c8dbb          	addw	s11,s9,a6

0000000080002280 <label_0_1165>:
  asm volatile ("label_0_1408 :\n\t"); asm volatile ("DIVW t5, a4, a2\n\t");
    80002280:	03f90fbb          	mulw	t6,s2,t6

0000000080002284 <label_0_1166>:
  asm volatile ("label_0_1409 :\n\t");   asm volatile ("label_0_1410 :\n\t"); asm volatile ("MULW s3, t6, a3\n\t");
    80002284:	03ce783b          	remuw	a6,t3,t3

0000000080002288 <label_0_1167>:
  asm volatile ("label_0_1411 :\n\t"); asm volatile ("LD a6, -672 (s0)\n\t");
    80002288:	9d25                	addw	a0,a0,s1

000000008000228a <label_0_1168>:
  asm volatile ("label_0_1412 :\n\t");   asm volatile ("label_0_1413 :\n\t"); asm volatile ("ADDIW t4, a1, 0x11\n\t");
    8000228a:	01c08dbb          	addw	s11,ra,t3

000000008000228e <label_0_1169>:
  asm volatile ("label_0_1414 :\n\t"); asm volatile ("LWU s6, -332 (s0)\n\t");
    8000228e:	039b86bb          	mulw	a3,s7,s9

0000000080002292 <label_0_1170>:
  asm volatile ("label_0_1415 :\n\t"); asm volatile ("DIVUW t1, t3, a0\n\t");
    80002292:	02a653bb          	divuw	t2,a2,a0

0000000080002296 <label_0_1171>:
  asm volatile ("label_0_1416 :\n\t"); asm volatile ("C.ADDIW a2, 0x1\n\t");
    80002296:	2fd5                	addiw	t6,t6,21

0000000080002298 <label_0_1172>:
  asm volatile ("label_0_1417 :\n\t"); asm volatile ("LD a5, -296 (s0)\n\t");
    80002298:	9eb5                	addw	a3,a3,a3

000000008000229a <label_0_1173>:
  asm volatile ("label_0_1418 :\n\t"); asm volatile ("LD zero, -172 (s0)\n\t");
    8000229a:	9f05                	subw	a4,a4,s1

000000008000229c <label_0_1174>:
  asm volatile ("label_0_1419 :\n\t"); asm volatile ("LWU s9, -320 (s0)\n\t");
    8000229c:	024ae7bb          	remw	a5,s5,tp

00000000800022a0 <label_0_1175>:
  asm volatile ("label_0_1420 :\n\t"); asm volatile ("DIVUW a4, t4, t5\n\t");
    800022a0:	02b7e23b          	remw	tp,a5,a1

00000000800022a4 <label_0_1176>:
  asm volatile ("label_0_1421 :\n\t");   asm volatile ("label_0_1422 :\n\t"); asm volatile ("ADDW a6, s7, a1\n\t");
    800022a4:	017806bb          	addw	a3,a6,s7

00000000800022a8 <label_0_1177>:
  asm volatile ("label_0_1423 :\n\t"); asm volatile ("DIVUW s9, s11, zero\n\t");
    800022a8:	9f85                	subw	a5,a5,s1

00000000800022aa <label_0_1178>:
  asm volatile ("label_0_1424 :\n\t"); asm volatile ("LWU t4, -840 (s0)\n\t");
    800022aa:	03f98cbb          	mulw	s9,s3,t6

00000000800022ae <label_0_1179>:
  asm volatile ("label_0_1425 :\n\t"); asm volatile ("DIVW s1, s3, s11\n\t");
    800022ae:	0312f93b          	remuw	s2,t0,a7

00000000800022b2 <label_0_1180>:
  asm volatile ("label_0_1426 :\n\t"); asm volatile ("C.SUBW a3, a3\n\t");
    800022b2:	02e2ec3b          	remw	s8,t0,a4

00000000800022b6 <label_0_1181>:
  asm volatile ("label_0_1427 :\n\t"); asm volatile ("LWU a2, -68 (s0)\n\t");
    800022b6:	9d09                	subw	a0,a0,a0

00000000800022b8 <label_0_1182>:
  asm volatile ("label_0_1428 :\n\t"); asm volatile ("ADDIW t5, a4, 0x2\n\t");
    800022b8:	03c884bb          	mulw	s1,a7,t3

00000000800022bc <label_0_1183>:
  asm volatile ("label_0_1429 :\n\t"); asm volatile ("REMW t5, t4, s3\n\t");
    800022bc:	01ff069b          	addiw	a3,t5,31

00000000800022c0 <label_0_1184>:
  asm volatile ("label_0_1430 :\n\t"); asm volatile ("MULW s9, s8, t3\n\t");
    800022c0:	41708e3b          	subw	t3,ra,s7

00000000800022c4 <label_0_1185>:
  asm volatile ("label_0_1431 :\n\t"); asm volatile ("C.SUBW a5, a5\n\t");
    800022c4:	9d0d                	subw	a0,a0,a1

00000000800022c6 <label_0_1186>:
  asm volatile ("label_0_1432 :\n\t"); asm volatile ("REMW s2, s9, a4\n\t");
    800022c6:	415c8a3b          	subw	s4,s9,s5

00000000800022ca <label_0_1187>:
  asm volatile ("label_0_1433 :\n\t"); asm volatile ("LWU s6, -180 (s0)\n\t");
    800022ca:	2769                	addiw	a4,a4,26

00000000800022cc <label_0_1188>:
  asm volatile ("label_0_1434 :\n\t"); asm volatile ("LWU a2, -56 (s0)\n\t");
    800022cc:	0262f7bb          	remuw	a5,t0,t1

00000000800022d0 <label_0_1189>:
  asm volatile ("label_0_1435 :\n\t"); asm volatile ("ADDW s9, s11, s10\n\t");
    800022d0:	003e891b          	addiw	s2,t4,3

00000000800022d4 <label_0_1190>:
  asm volatile ("label_0_1436 :\n\t");   asm volatile ("label_0_1437 :\n\t"); asm volatile ("LWU s11, -196 (s0)\n\t");
    800022d4:	003c0e9b          	addiw	t4,s8,3

00000000800022d8 <label_0_1191>:
  asm volatile ("label_0_1438 :\n\t"); asm volatile ("DIVW t2, t3, t3\n\t");
    800022d8:	27c9                	addiw	a5,a5,18

00000000800022da <label_0_1192>:
  asm volatile ("label_0_1439 :\n\t"); asm volatile ("LWU s11, -288 (s0)\n\t");
    800022da:	40ad05bb          	subw	a1,s10,a0

00000000800022de <label_0_1193>:
  asm volatile ("label_0_1440 :\n\t");   asm volatile ("label_0_1441 :\n\t"); asm volatile ("LD t4, -348 (s0)\n\t");
    800022de:	9da9                	addw	a1,a1,a0

00000000800022e0 <label_0_1194>:
  asm volatile ("label_0_1442 :\n\t"); asm volatile ("SUBW t1, t0, ra\n\t");
    800022e0:	000b053b          	addw	a0,s6,zero

00000000800022e4 <label_0_1195>:
  asm volatile ("label_0_1443 :\n\t");   asm volatile ("label_0_1444 :\n\t"); asm volatile ("REMW ra, s3, s5\n\t");
    800022e4:	031c8abb          	mulw	s5,s9,a7

00000000800022e8 <label_0_1196>:
  asm volatile ("label_0_1445 :\n\t"); asm volatile ("LD a1, -480 (s0)\n\t");
    800022e8:	01a3889b          	addiw	a7,t2,26

00000000800022ec <label_0_1197>:
  asm volatile ("label_0_1446 :\n\t"); asm volatile ("LWU a6, -408 (s0)\n\t");
    800022ec:	03a2d9bb          	divuw	s3,t0,s10

00000000800022f0 <label_0_1198>:
  asm volatile ("label_0_1447 :\n\t"); asm volatile ("LD s2, -160 (s0)\n\t");
    800022f0:	41030c3b          	subw	s8,t1,a6

00000000800022f4 <label_0_1199>:
  asm volatile ("label_0_1448 :\n\t"); asm volatile ("C.ADDW a3, a4\n\t");
    800022f4:	02c6cb3b          	divw	s6,a3,a2

00000000800022f8 <label_0_1200>:
  asm volatile ("label_0_1449 :\n\t");   asm volatile ("label_0_1450 :\n\t"); asm volatile ("LD s4, -88 (s0)\n\t");
    800022f8:	9f35                	addw	a4,a4,a3

00000000800022fa <label_0_1201>:
  asm volatile ("label_0_1451 :\n\t"); asm volatile ("REMUW s5, t2, s8\n\t");
    800022fa:	027e863b          	mulw	a2,t4,t2

00000000800022fe <label_0_1202>:
  asm volatile ("label_0_1452 :\n\t"); asm volatile ("DIVUW a2, s6, a4\n\t");
    800022fe:	27e9                	addiw	a5,a5,26

0000000080002300 <label_0_1203>:
  asm volatile ("label_0_1453 :\n\t"); asm volatile ("LD a6, -732 (s0)\n\t");
    80002300:	00098a9b          	sext.w	s5,s3

0000000080002304 <label_0_1204>:
  asm volatile ("label_0_1454 :\n\t");   asm volatile ("label_0_1455 :\n\t");   asm volatile ("label_0_1456 :\n\t"); asm volatile ("MULW s8, s5, s10\n\t");
    80002304:	03cd6e3b          	remw	t3,s10,t3

0000000080002308 <label_0_1205>:
  asm volatile ("label_0_1457 :\n\t"); asm volatile ("REMW a0, s2, a2\n\t");
    80002308:	001b8e9b          	addiw	t4,s7,1

000000008000230c <label_0_1206>:
  asm volatile ("label_0_1458 :\n\t"); asm volatile ("C.ADDIW s1, 0x4\n\t");
    8000230c:	40620bbb          	subw	s7,tp,t1

0000000080002310 <label_0_1207>:
  asm volatile ("label_0_1459 :\n\t"); asm volatile ("LD a3, -708 (s0)\n\t");
    80002310:	9d25                	addw	a0,a0,s1

0000000080002312 <label_0_1208>:
  asm volatile ("label_0_1460 :\n\t"); asm volatile ("C.ADDW a0, a3\n\t");
    80002312:	03dddf3b          	divuw	t5,s11,t4

0000000080002316 <label_0_1209>:
  asm volatile ("label_0_1461 :\n\t"); asm volatile ("LD tp, -752 (s0)\n\t");
    80002316:	009b823b          	addw	tp,s7,s1

000000008000231a <label_0_1210>:
  asm volatile ("label_0_1462 :\n\t");   asm volatile ("label_0_1463 :\n\t"); asm volatile ("DIVW a4, t3, t2\n\t");
    8000231a:	000b8a1b          	sext.w	s4,s7

000000008000231e <label_0_1211>:
  asm volatile ("label_0_1464 :\n\t"); asm volatile ("DIVUW a2, t3, s1\n\t");
    8000231e:	03b988bb          	mulw	a7,s3,s11

0000000080002322 <label_0_1212>:
  asm volatile ("label_0_1465 :\n\t"); asm volatile ("DIVW t5, s7, a1\n\t");
    80002322:	2619                	addiw	a2,a2,6

0000000080002324 <label_0_1213>:
  asm volatile ("label_0_1466 :\n\t"); asm volatile ("LD t1, -516 (s0)\n\t");
    80002324:	0389d4bb          	divuw	s1,s3,s8

0000000080002328 <label_0_1214>:
  asm volatile ("label_0_1467 :\n\t"); asm volatile ("ADDIW s10, s3, 0x6\n\t");
    80002328:	9c99                	subw	s1,s1,a4

000000008000232a <label_0_1215>:
  asm volatile ("label_0_1468 :\n\t"); asm volatile ("DIVUW t6, s1, zero\n\t");
    8000232a:	011b8dbb          	addw	s11,s7,a7

000000008000232e <label_0_1216>:
  asm volatile ("label_0_1469 :\n\t"); asm volatile ("LWU s8, -580 (s0)\n\t");
    8000232e:	9f19                	subw	a4,a4,a4

0000000080002330 <label_0_1217>:
  asm volatile ("label_0_1470 :\n\t"); asm volatile ("C.ADDW a1, a3\n\t");
    80002330:	02efd6bb          	divuw	a3,t6,a4

0000000080002334 <label_0_1218>:
  asm volatile ("label_0_1471 :\n\t"); asm volatile ("LD s8, -724 (s0)\n\t");
    80002334:	9d09                	subw	a0,a0,a0

0000000080002336 <label_0_1219>:
  asm volatile ("label_0_1472 :\n\t"); asm volatile ("LD s4, -92 (s0)\n\t");
    80002336:	9e1d                	subw	a2,a2,a5

0000000080002338 <label_0_1220>:
  asm volatile ("label_0_1473 :\n\t"); asm volatile ("MULW ra, t6, s4\n\t");
    80002338:	9c91                	subw	s1,s1,a2

000000008000233a <label_0_1221>:
  asm volatile ("label_0_1474 :\n\t"); asm volatile ("LD t3, -600 (s0)\n\t");
    8000233a:	02d847bb          	divw	a5,a6,a3

000000008000233e <label_0_1222>:
  asm volatile ("label_0_1475 :\n\t"); asm volatile ("C.ADDIW a2, 0x15\n\t");
    8000233e:	01448c9b          	addiw	s9,s1,20

0000000080002342 <label_0_1223>:
  asm volatile ("label_0_1476 :\n\t"); asm volatile ("LD a7, -832 (s0)\n\t");
    80002342:	9fb9                	addw	a5,a5,a4

0000000080002344 <label_0_1224>:
  asm volatile ("label_0_1477 :\n\t"); asm volatile ("REMW s1, a4, a5\n\t");
    80002344:	03c0f7bb          	remuw	a5,ra,t3

0000000080002348 <label_0_1225>:
  asm volatile ("label_0_1478 :\n\t");   asm volatile ("label_0_1479 :\n\t"); asm volatile ("LWU zero, -24 (s0)\n\t");
    80002348:	018b00bb          	addw	ra,s6,s8

000000008000234c <label_0_1226>:
  asm volatile ("label_0_1480 :\n\t"); asm volatile ("LD a5, -20 (s0)\n\t");
    8000234c:	41bf0bbb          	subw	s7,t5,s11

0000000080002350 <label_0_1227>:
  asm volatile ("label_0_1481 :\n\t"); asm volatile ("SUBW a0, a5, a0\n\t");
    80002350:	24ad                	addiw	s1,s1,11

0000000080002352 <label_0_1228>:
  asm volatile ("label_0_1482 :\n\t"); asm volatile ("LWU s9, -244 (s0)\n\t");
    80002352:	03c2de3b          	divuw	t3,t0,t3

0000000080002356 <label_0_1229>:
  asm volatile ("label_0_1483 :\n\t"); asm volatile ("LD ra, -860 (s0)\n\t");
    80002356:	007f04bb          	addw	s1,t5,t2

000000008000235a <label_0_1230>:
  asm volatile ("label_0_1484 :\n\t"); asm volatile ("DIVW t4, s9, s9\n\t");
    8000235a:	00338e9b          	addiw	t4,t2,3

000000008000235e <label_0_1231>:
  asm volatile ("label_0_1485 :\n\t"); asm volatile ("LD tp, -8 (s0)\n\t");
    8000235e:	017d0c1b          	addiw	s8,s10,23

0000000080002362 <label_0_1232>:
  asm volatile ("label_0_1486 :\n\t");   asm volatile ("label_0_1487 :\n\t"); asm volatile ("ADDIW t5, a3, 0x1b\n\t");
    80002362:	00f78ebb          	addw	t4,a5,a5

0000000080002366 <label_0_1233>:
  asm volatile ("label_0_1488 :\n\t"); asm volatile ("LD a6, -352 (s0)\n\t");
    80002366:	41930d3b          	subw	s10,t1,s9

000000008000236a <label_0_1234>:
  asm volatile ("label_0_1489 :\n\t");   asm volatile ("label_0_1490 :\n\t"); asm volatile ("LD s5, -80 (s0)\n\t");
    8000236a:	25c1                	addiw	a1,a1,16

000000008000236c <label_0_1235>:
  asm volatile ("label_0_1491 :\n\t"); asm volatile ("DIVW a4, t2, a3\n\t");
    8000236c:	419d8abb          	subw	s5,s11,s9

0000000080002370 <label_0_1236>:
  asm volatile ("label_0_1492 :\n\t"); asm volatile ("LWU t3, -168 (s0)\n\t");
    80002370:	9f2d                	addw	a4,a4,a1

0000000080002372 <label_0_1237>:
  asm volatile ("label_0_1493 :\n\t"); asm volatile ("ADDW t2, ra, t6\n\t");
    80002372:	02cec53b          	divw	a0,t4,a2

0000000080002376 <label_0_1238>:
  asm volatile ("label_0_1494 :\n\t"); asm volatile ("DIVW a3, s3, a2\n\t");
    80002376:	03edd53b          	divuw	a0,s11,t5

000000008000237a <label_0_1239>:
  asm volatile ("label_0_1495 :\n\t"); asm volatile ("LWU t3, -668 (s0)\n\t");
    8000237a:	2629                	addiw	a2,a2,10

000000008000237c <label_0_1240>:
  asm volatile ("label_0_1496 :\n\t"); asm volatile ("C.ADDW a1, a0\n\t");
    8000237c:	018d06bb          	addw	a3,s10,s8

0000000080002380 <label_0_1241>:
  asm volatile ("label_0_1497 :\n\t"); asm volatile ("C.ADDW a4, a4\n\t");
    80002380:	038ae9bb          	remw	s3,s5,s8

0000000080002384 <label_0_1242>:
  asm volatile ("label_0_1498 :\n\t"); asm volatile ("DIVUW a6, ra, t4\n\t");
    80002384:	9e2d                	addw	a2,a2,a1

0000000080002386 <label_0_1243>:
  asm volatile ("label_0_1499 :\n\t"); asm volatile ("SUBW a7, s3, a5\n\t");
    80002386:	03ec773b          	remuw	a4,s8,t5

000000008000238a <label_0_1244>:
  asm volatile ("label_0_1500 :\n\t"); asm volatile ("MULW zero, ra, s11\n\t");
    8000238a:	034040bb          	divw	ra,zero,s4

000000008000238e <label_0_1245>:
  asm volatile ("label_0_1501 :\n\t"); asm volatile ("LWU s3, -716 (s0)\n\t");
    8000238e:	030ee4bb          	remw	s1,t4,a6

0000000080002392 <label_0_1246>:
  asm volatile ("label_0_1502 :\n\t");   asm volatile ("label_0_1503 :\n\t"); asm volatile ("MULW s2, a1, a1\n\t");
    80002392:	02f089bb          	mulw	s3,ra,a5

0000000080002396 <label_0_1247>:
  asm volatile ("label_0_1504 :\n\t"); asm volatile ("LD s9, -160 (s0)\n\t");
    80002396:	9f31                	addw	a4,a4,a2

0000000080002398 <label_0_1248>:
  asm volatile ("label_0_1505 :\n\t"); asm volatile ("REMW s7, a2, s7\n\t");
    80002398:	0392823b          	mulw	tp,t0,s9

000000008000239c <label_0_1249>:
  asm volatile ("label_0_1506 :\n\t"); asm volatile ("ADDW t5, s11, s2\n\t");
    8000239c:	9cb9                	addw	s1,s1,a4

000000008000239e <label_0_1250>:
  asm volatile ("label_0_1507 :\n\t"); asm volatile ("ADDIW ra, t0, 0x13\n\t");
    8000239e:	02ec54bb          	divuw	s1,s8,a4

00000000800023a2 <label_0_1251>:
  asm volatile ("label_0_1508 :\n\t"); asm volatile ("LD t4, -604 (s0)\n\t");
    800023a2:	4069873b          	subw	a4,s3,t1

00000000800023a6 <label_0_1252>:
  asm volatile ("label_0_1509 :\n\t"); asm volatile ("LD a2, -872 (s0)\n\t");
    800023a6:	034984bb          	mulw	s1,s3,s4

00000000800023aa <label_0_1253>:
  asm volatile ("label_0_1510 :\n\t"); asm volatile ("LD s3, -872 (s0)\n\t");
    800023aa:	02bd6e3b          	remw	t3,s10,a1

00000000800023ae <label_0_1254>:
  asm volatile ("label_0_1511 :\n\t"); asm volatile ("LD t3, -788 (s0)\n\t");
    800023ae:	9f39                	addw	a4,a4,a4

00000000800023b0 <label_0_1255>:
  asm volatile ("label_0_1512 :\n\t"); asm volatile ("LD s6, -580 (s0)\n\t");
    800023b0:	9e99                	subw	a3,a3,a4

00000000800023b2 <label_0_1256>:
  asm volatile ("label_0_1513 :\n\t"); asm volatile ("C.ADDW a3, a3\n\t");
    800023b2:	007683bb          	addw	t2,a3,t2

00000000800023b6 <label_0_1257>:
  asm volatile ("label_0_1514 :\n\t"); asm volatile ("DIVW a4, a7, t0\n\t");
    800023b6:	024fd0bb          	divuw	ra,t6,tp

00000000800023ba <label_0_1258>:
  asm volatile ("label_0_1515 :\n\t"); asm volatile ("LD s7, -684 (s0)\n\t");
    800023ba:	006e059b          	addiw	a1,t3,6

00000000800023be <label_0_1259>:
  asm volatile ("label_0_1516 :\n\t"); asm volatile ("SUBW t1, s6, s5\n\t");
    800023be:	03b8673b          	remw	a4,a6,s11

00000000800023c2 <label_0_1260>:
  asm volatile ("label_0_1517 :\n\t"); asm volatile ("SUBW s8, s4, tp\n\t");
    800023c2:	02aef6bb          	remuw	a3,t4,a0

00000000800023c6 <label_0_1261>:
  asm volatile ("label_0_1518 :\n\t");   asm volatile ("label_0_1519 :\n\t"); asm volatile ("SUBW s10, a3, tp\n\t");
    800023c6:	02bb693b          	remw	s2,s6,a1

00000000800023ca <label_0_1262>:
  asm volatile ("label_0_1520 :\n\t"); asm volatile ("REMW t4, a1, s11\n\t");
    800023ca:	0386663b          	remw	a2,a2,s8

00000000800023ce <label_0_1263>:
  asm volatile ("label_0_1521 :\n\t"); asm volatile ("LD s7, -268 (s0)\n\t");
    800023ce:	02f6f7bb          	remuw	a5,a3,a5

00000000800023d2 <label_0_1264>:
  asm volatile ("label_0_1522 :\n\t"); asm volatile ("C.SUBW a0, a2\n\t");
    800023d2:	019b8e3b          	addw	t3,s7,s9

00000000800023d6 <label_0_1265>:
  asm volatile ("label_0_1523 :\n\t"); asm volatile ("REMUW s10, s10, t5\n\t");
    800023d6:	02c744bb          	divw	s1,a4,a2

00000000800023da <label_0_1266>:
  asm volatile ("label_0_1524 :\n\t");   asm volatile ("label_0_1525 :\n\t"); asm volatile ("REMW t6, s8, s11\n\t");
    800023da:	26d9                	addiw	a3,a3,22

00000000800023dc <label_0_1267>:
  asm volatile ("label_0_1526 :\n\t"); asm volatile ("DIVW a3, s7, t2\n\t");
    800023dc:	024342bb          	divw	t0,t1,tp

00000000800023e0 <label_0_1268>:
  asm volatile ("label_0_1527 :\n\t"); asm volatile ("REMUW ra, s2, tp\n\t");
    800023e0:	0088031b          	addiw	t1,a6,8

00000000800023e4 <label_0_1269>:
  asm volatile ("label_0_1528 :\n\t"); asm volatile ("ADDIW t5, t1, 0x8\n\t");
    800023e4:	9c89                	subw	s1,s1,a0

00000000800023e6 <label_0_1270>:
  asm volatile ("label_0_1529 :\n\t");   asm volatile ("label_0_1530 :\n\t"); asm volatile ("SUBW a5, s4, a6\n\t");
    800023e6:	2749                	addiw	a4,a4,18

00000000800023e8 <label_0_1271>:
  asm volatile ("label_0_1531 :\n\t"); asm volatile ("LD s2, -236 (s0)\n\t");
    800023e8:	025253bb          	divuw	t2,tp,t0

00000000800023ec <label_0_1272>:
  asm volatile ("label_0_1532 :\n\t");   asm volatile ("label_0_1533 :\n\t"); asm volatile ("LD s5, -784 (s0)\n\t");
    800023ec:	0098849b          	addiw	s1,a7,9

00000000800023f0 <label_0_1273>:
  asm volatile ("label_0_1534 :\n\t"); asm volatile ("REMUW t5, s8, s3\n\t");
    800023f0:	9cad                	addw	s1,s1,a1

00000000800023f2 <label_0_1274>:
  asm volatile ("label_0_1535 :\n\t"); asm volatile ("DIVUW t0, t4, t4\n\t");
    800023f2:	03ecd73b          	divuw	a4,s9,t5

00000000800023f6 <label_0_1275>:
  asm volatile ("label_0_1536 :\n\t"); asm volatile ("REMUW a7, s3, a2\n\t");
    800023f6:	268d                	addiw	a3,a3,3

00000000800023f8 <label_0_1276>:
  asm volatile ("label_0_1537 :\n\t"); asm volatile ("C.ADDIW a2, 0x12\n\t");
    800023f8:	415f8fbb          	subw	t6,t6,s5

00000000800023fc <label_0_1277>:
  asm volatile ("label_0_1538 :\n\t"); asm volatile ("MULW s10, t3, a5\n\t");
    800023fc:	03a707bb          	mulw	a5,a4,s10

0000000080002400 <label_0_1278>:
  asm volatile ("label_0_1539 :\n\t");   asm volatile ("label_0_1540 :\n\t"); asm volatile ("LD a4, -376 (s0)\n\t");
    80002400:	03cd553b          	divuw	a0,s10,t3

0000000080002404 <label_0_1279>:
  asm volatile ("label_0_1541 :\n\t"); asm volatile ("C.SUBW a5, a3\n\t");
    80002404:	021edf3b          	divuw	t5,t4,ra

0000000080002408 <label_0_1280>:
  asm volatile ("label_0_1542 :\n\t"); asm volatile ("C.ADDW a2, a5\n\t");
    80002408:	2755                	addiw	a4,a4,21

000000008000240a <label_0_1281>:
  asm volatile ("label_0_1543 :\n\t"); asm volatile ("LWU t2, -744 (s0)\n\t");
    8000240a:	9f0d                	subw	a4,a4,a1

000000008000240c <label_0_1282>:
  asm volatile ("label_0_1544 :\n\t"); asm volatile ("LD s9, -160 (s0)\n\t");
    8000240c:	9db1                	addw	a1,a1,a2

000000008000240e <label_0_1283>:
  asm volatile ("label_0_1545 :\n\t"); asm volatile ("DIVUW a3, a1, s9\n\t");
    8000240e:	01178f9b          	addiw	t6,a5,17

0000000080002412 <label_0_1284>:
  asm volatile ("label_0_1546 :\n\t"); asm volatile ("LWU s5, -180 (s0)\n\t");
    80002412:	03ae0bbb          	mulw	s7,t3,s10

0000000080002416 <label_0_1285>:
  asm volatile ("label_0_1547 :\n\t"); asm volatile ("C.ADDW a5, a4\n\t");
    80002416:	25ed                	addiw	a1,a1,27

0000000080002418 <label_0_1286>:
  asm volatile ("label_0_1548 :\n\t");   asm volatile ("label_0_1549 :\n\t"); asm volatile ("ADDW s10, t6, s1\n\t");
    80002418:	036ed7bb          	divuw	a5,t4,s6

000000008000241c <label_0_1287>:
  asm volatile ("label_0_1550 :\n\t"); asm volatile ("MULW t5, s10, t6\n\t");
    8000241c:	009b009b          	addiw	ra,s6,9

0000000080002420 <label_0_1288>:
  asm volatile ("label_0_1551 :\n\t"); asm volatile ("LWU t2, -468 (s0)\n\t");
    80002420:	2719                	addiw	a4,a4,6

0000000080002422 <label_0_1289>:
  asm volatile ("label_0_1552 :\n\t"); asm volatile ("LD t5, -484 (s0)\n\t");
    80002422:	02084ebb          	divw	t4,a6,zero

0000000080002426 <label_0_1290>:
  asm volatile ("label_0_1553 :\n\t"); asm volatile ("REMUW a6, a2, s1\n\t");
    80002426:	037cfabb          	remuw	s5,s9,s7

000000008000242a <label_0_1291>:
  asm volatile ("label_0_1554 :\n\t"); asm volatile ("LWU s11, -756 (s0)\n\t");
    8000242a:	016f89bb          	addw	s3,t6,s6

000000008000242e <label_0_1292>:
  asm volatile ("label_0_1555 :\n\t"); asm volatile ("REMUW a1, s9, s3\n\t");
    8000242e:	02d8773b          	remuw	a4,a6,a3

0000000080002432 <label_0_1293>:
  asm volatile ("label_0_1556 :\n\t"); asm volatile ("DIVUW s11, s5, t6\n\t");
    80002432:	0240e53b          	remw	a0,ra,tp

0000000080002436 <label_0_1294>:
  asm volatile ("label_0_1557 :\n\t"); asm volatile ("REMUW tp, a6, s1\n\t");
    80002436:	033feb3b          	remw	s6,t6,s3

000000008000243a <label_0_1295>:
  asm volatile ("label_0_1558 :\n\t");   asm volatile ("label_0_1559 :\n\t"); asm volatile ("LWU a3, -868 (s0)\n\t");
    8000243a:	03edc83b          	divw	a6,s11,t5

000000008000243e <label_0_1296>:
  asm volatile ("label_0_1560 :\n\t");   asm volatile ("label_0_1561 :\n\t"); asm volatile ("LWU s10, -268 (s0)\n\t");
    8000243e:	034dda3b          	divuw	s4,s11,s4

0000000080002442 <label_0_1297>:
  asm volatile ("label_0_1562 :\n\t"); asm volatile ("ADDW a6, s10, s9\n\t");
    80002442:	41b48dbb          	subw	s11,s1,s11

0000000080002446 <label_0_1298>:
  asm volatile ("label_0_1563 :\n\t"); asm volatile ("LWU s11, -608 (s0)\n\t");
    80002446:	00a780bb          	addw	ra,a5,a0

000000008000244a <label_0_1299>:
  asm volatile ("label_0_1564 :\n\t"); asm volatile ("DIVW t4, s7, t2\n\t");
    8000244a:	032ddc3b          	divuw	s8,s11,s2

000000008000244e <label_0_1300>:
  asm volatile ("label_0_1565 :\n\t"); asm volatile ("DIVUW a3, zero, t6\n\t");
    8000244e:	00578f9b          	addiw	t6,a5,5

0000000080002452 <label_0_1301>:
  asm volatile ("label_0_1566 :\n\t"); asm volatile ("DIVW s11, t3, a3\n\t");
    80002452:	9fad                	addw	a5,a5,a1

0000000080002454 <label_0_1302>:
  asm volatile ("label_0_1567 :\n\t"); asm volatile ("SUBW s11, t6, t5\n\t");
    80002454:	25d1                	addiw	a1,a1,20

0000000080002456 <label_0_1303>:
  asm volatile ("label_0_1568 :\n\t"); asm volatile ("LD a0, -752 (s0)\n\t");
    80002456:	03a9dc3b          	divuw	s8,s3,s10

000000008000245a <label_0_1304>:
  asm volatile ("label_0_1569 :\n\t");   asm volatile ("label_0_1570 :\n\t");   asm volatile ("label_0_1571 :\n\t"); asm volatile ("LD t1, -112 (s0)\n\t");
    8000245a:	2785                	addiw	a5,a5,1

000000008000245c <label_0_1305>:
  asm volatile ("label_0_1572 :\n\t"); asm volatile ("C.SUBW a5, a3\n\t");
    8000245c:	40ba0f3b          	subw	t5,s4,a1

0000000080002460 <label_0_1306>:
  asm volatile ("label_0_1573 :\n\t"); asm volatile ("LWU s11, -500 (s0)\n\t");
    80002460:	03a7d8bb          	divuw	a7,a5,s10

0000000080002464 <label_0_1307>:
  asm volatile ("label_0_1574 :\n\t"); asm volatile ("C.ADDIW a1, 0x1f\n\t");
    80002464:	24ad                	addiw	s1,s1,11

0000000080002466 <label_0_1308>:
  asm volatile ("label_0_1575 :\n\t"); asm volatile ("MULW a2, a0, s1\n\t");
    80002466:	0037821b          	addiw	tp,a5,3

000000008000246a <label_0_1309>:
  asm volatile ("label_0_1576 :\n\t"); asm volatile ("C.ADDW s1, a4\n\t");
    8000246a:	0344e63b          	remw	a2,s1,s4

000000008000246e <label_0_1310>:
  asm volatile ("label_0_1577 :\n\t"); asm volatile ("ADDW t6, tp, t2\n\t");
    8000246e:	025ee9bb          	remw	s3,t4,t0

0000000080002472 <label_0_1311>:
  asm volatile ("label_0_1578 :\n\t"); asm volatile ("LWU tp, -680 (s0)\n\t");
    80002472:	9d19                	subw	a0,a0,a4

0000000080002474 <label_0_1312>:
  asm volatile ("label_0_1579 :\n\t"); asm volatile ("SUBW t0, t4, a7\n\t");
    80002474:	9f89                	subw	a5,a5,a0

0000000080002476 <label_0_1313>:
  asm volatile ("label_0_1580 :\n\t"); asm volatile ("DIVW s10, t0, t3\n\t");
    80002476:	026bc0bb          	divw	ra,s7,t1

000000008000247a <label_0_1314>:
  asm volatile ("label_0_1581 :\n\t"); asm volatile ("LWU a3, -452 (s0)\n\t");
    8000247a:	406004bb          	negw	s1,t1

000000008000247e <label_0_1315>:
  asm volatile ("label_0_1582 :\n\t"); asm volatile ("LWU t5, -880 (s0)\n\t");
    8000247e:	00fb809b          	addiw	ra,s7,15

0000000080002482 <label_0_1316>:
  asm volatile ("label_0_1583 :\n\t"); asm volatile ("ADDW a3, t3, a7\n\t");
    80002482:	019208bb          	addw	a7,tp,s9

0000000080002486 <label_0_1317>:
  asm volatile ("label_0_1584 :\n\t"); asm volatile ("LWU t4, -44 (s0)\n\t");
    80002486:	9f31                	addw	a4,a4,a2

0000000080002488 <label_0_1318>:
  asm volatile ("label_0_1585 :\n\t");   asm volatile ("label_0_1586 :\n\t"); asm volatile ("SUBW a2, s1, t6\n\t");
    80002488:	020a5fbb          	divuw	t6,s4,zero

000000008000248c <label_0_1319>:
  asm volatile ("label_0_1587 :\n\t"); asm volatile ("LWU ra, -836 (s0)\n\t");
    8000248c:	9f11                	subw	a4,a4,a2

000000008000248e <label_0_1320>:
  asm volatile ("label_0_1588 :\n\t");   asm volatile ("label_0_1589 :\n\t"); asm volatile ("ADDIW s8, s6, 0x1c\n\t");
    8000248e:	02dcce3b          	divw	t3,s9,a3

0000000080002492 <label_0_1321>:
  asm volatile ("label_0_1590 :\n\t"); asm volatile ("LWU t1, -800 (s0)\n\t");
    80002492:	034b06bb          	mulw	a3,s6,s4

0000000080002496 <label_0_1322>:
  asm volatile ("label_0_1591 :\n\t");   asm volatile ("label_0_1592 :\n\t");   asm volatile ("label_0_1593 :\n\t"); asm volatile ("ADDIW tp, s4, 0x10\n\t");
    80002496:	40a38f3b          	subw	t5,t2,a0

000000008000249a <label_0_1323>:
  asm volatile ("label_0_1594 :\n\t");   asm volatile ("label_0_1595 :\n\t"); asm volatile ("REMUW t6, t2, s8\n\t");
    8000249a:	03ea033b          	mulw	t1,s4,t5

000000008000249e <label_0_1324>:
  asm volatile ("label_0_1596 :\n\t"); asm volatile ("C.ADDW a4, a0\n\t");
    8000249e:	9cb5                	addw	s1,s1,a3

00000000800024a0 <label_0_1325>:
  asm volatile ("label_0_1597 :\n\t"); asm volatile ("LD s4, -176 (s0)\n\t");
    800024a0:	9ea5                	addw	a3,a3,s1

00000000800024a2 <label_0_1326>:
  asm volatile ("label_0_1598 :\n\t"); asm volatile ("LWU s5, -340 (s0)\n\t");
    800024a2:	01ca0dbb          	addw	s11,s4,t3

00000000800024a6 <label_0_1327>:
  asm volatile ("label_0_1599 :\n\t");   asm volatile ("label_0_1600 :\n\t"); asm volatile ("REMUW s10, s2, t2\n\t");
    800024a6:	019e80bb          	addw	ra,t4,s9

00000000800024aa <label_0_1328>:
  asm volatile ("label_0_1601 :\n\t"); asm volatile ("REMW s7, a6, a4\n\t");
    800024aa:	0325cfbb          	divw	t6,a1,s2

00000000800024ae <label_0_1329>:
  asm volatile ("label_0_1602 :\n\t");   asm volatile ("label_0_1603 :\n\t"); asm volatile ("C.SUBW a5, a5\n\t");
    800024ae:	02cf68bb          	remw	a7,t5,a2

00000000800024b2 <label_0_1330>:
  asm volatile ("label_0_1604 :\n\t"); asm volatile ("LWU tp, -220 (s0)\n\t");
    800024b2:	02996dbb          	remw	s11,s2,s1

00000000800024b6 <label_0_1331>:
  asm volatile ("label_0_1605 :\n\t"); asm volatile ("ADDIW s1, s7, 0x5\n\t");
    800024b6:	02a57f3b          	remuw	t5,a0,a0

00000000800024ba <label_0_1332>:
  asm volatile ("label_0_1606 :\n\t");   asm volatile ("label_0_1607 :\n\t"); asm volatile ("ADDIW ra, s3, 0x1d\n\t");
    800024ba:	00c58ebb          	addw	t4,a1,a2

00000000800024be <label_0_1333>:
  asm volatile ("label_0_1608 :\n\t"); asm volatile ("SUBW a5, ra, a4\n\t");
    800024be:	00df8b3b          	addw	s6,t6,a3

00000000800024c2 <label_0_1334>:
  asm volatile ("label_0_1609 :\n\t"); asm volatile ("LWU a4, -644 (s0)\n\t");
    800024c2:	01908f3b          	addw	t5,ra,s9

00000000800024c6 <label_0_1335>:
  asm volatile ("label_0_1610 :\n\t"); asm volatile ("REMW t0, tp, a7\n\t");
    800024c6:	0262f63b          	remuw	a2,t0,t1

00000000800024ca <label_0_1336>:
  asm volatile ("label_0_1611 :\n\t"); asm volatile ("LD s10, -320 (s0)\n\t");
    800024ca:	02b86d3b          	remw	s10,a6,a1

00000000800024ce <label_0_1337>:
  asm volatile ("label_0_1612 :\n\t"); asm volatile ("LWU a3, -688 (s0)\n\t");
    800024ce:	0216d23b          	divuw	tp,a3,ra

00000000800024d2 <label_0_1338>:
  asm volatile ("label_0_1613 :\n\t");   asm volatile ("label_0_1614 :\n\t"); asm volatile ("C.ADDIW a5, 0x1d\n\t");
    800024d2:	9d85                	subw	a1,a1,s1

00000000800024d4 <label_0_1339>:
  asm volatile ("label_0_1615 :\n\t"); asm volatile ("DIVUW t5, s10, a5\n\t");
    800024d4:	032a5dbb          	divuw	s11,s4,s2

00000000800024d8 <label_0_1340>:
  asm volatile ("label_0_1616 :\n\t"); asm volatile ("LWU a6, -40 (s0)\n\t");
    800024d8:	01378a9b          	addiw	s5,a5,19

00000000800024dc <label_0_1341>:
  asm volatile ("label_0_1617 :\n\t"); asm volatile ("ADDW s10, a0, a5\n\t");
    800024dc:	0018023b          	addw	tp,a6,ra

00000000800024e0 <label_0_1342>:
  asm volatile ("label_0_1618 :\n\t"); asm volatile ("LD s10, -72 (s0)\n\t");
    800024e0:	9e95                	subw	a3,a3,a3

00000000800024e2 <label_0_1343>:
  asm volatile ("label_0_1619 :\n\t"); asm volatile ("SUBW s8, s11, s9\n\t");
    800024e2:	00df0ebb          	addw	t4,t5,a3

00000000800024e6 <label_0_1344>:
  asm volatile ("label_0_1620 :\n\t"); asm volatile ("LD s5, -72 (s0)\n\t");
    800024e6:	02acd83b          	divuw	a6,s9,a0

00000000800024ea <label_0_1345>:
  asm volatile ("label_0_1621 :\n\t"); asm volatile ("LWU t2, -648 (s0)\n\t");
    800024ea:	020c7d3b          	remuw	s10,s8,zero

00000000800024ee <label_0_1346>:
  asm volatile ("label_0_1622 :\n\t"); asm volatile ("MULW t1, s5, s1\n\t");
    800024ee:	419a873b          	subw	a4,s5,s9

00000000800024f2 <label_0_1347>:
  asm volatile ("label_0_1623 :\n\t");   asm volatile ("label_0_1624 :\n\t"); asm volatile ("LWU s1, -616 (s0)\n\t");
    800024f2:	0258563b          	divuw	a2,a6,t0

00000000800024f6 <label_0_1348>:
  asm volatile ("label_0_1625 :\n\t"); asm volatile ("ADDIW s3, s2, 0x3\n\t");
    800024f6:	25c5                	addiw	a1,a1,17

00000000800024f8 <label_0_1349>:
  asm volatile ("label_0_1626 :\n\t"); asm volatile ("MULW tp, s7, s6\n\t");
    800024f8:	24f1                	addiw	s1,s1,28

00000000800024fa <label_0_1350>:
  asm volatile ("label_0_1627 :\n\t");   asm volatile ("label_0_1628 :\n\t"); asm volatile ("DIVUW a2, s4, a0\n\t");
    800024fa:	027ecfbb          	divw	t6,t4,t2

00000000800024fe <label_0_1351>:
  asm volatile ("label_0_1629 :\n\t"); asm volatile ("LD s6, -512 (s0)\n\t");
    800024fe:	03a703bb          	mulw	t2,a4,s10

0000000080002502 <label_0_1352>:
  asm volatile ("label_0_1630 :\n\t");   asm volatile ("label_0_1631 :\n\t"); asm volatile ("C.ADDIW a0, 0x18\n\t");
    80002502:	03587a3b          	remuw	s4,a6,s5

0000000080002506 <label_0_1353>:
  asm volatile ("label_0_1632 :\n\t");   asm volatile ("label_0_1633 :\n\t"); asm volatile ("LD a1, -696 (s0)\n\t");
    80002506:	0168023b          	addw	tp,a6,s6

000000008000250a <label_0_1354>:
  asm volatile ("label_0_1634 :\n\t"); asm volatile ("LWU zero, -96 (s0)\n\t");
    8000250a:	0248d3bb          	divuw	t2,a7,tp

000000008000250e <label_0_1355>:
  asm volatile ("label_0_1635 :\n\t"); asm volatile ("ADDW s10, s11, a1\n\t");
    8000250e:	026c673b          	remw	a4,s8,t1

0000000080002512 <label_0_1356>:
  asm volatile ("label_0_1636 :\n\t"); asm volatile ("C.ADDIW a5, 0x13\n\t");
    80002512:	02ae8b3b          	mulw	s6,t4,a0

0000000080002516 <label_0_1357>:
  asm volatile ("label_0_1637 :\n\t"); asm volatile ("LWU s9, -328 (s0)\n\t");
    80002516:	00d582bb          	addw	t0,a1,a3

000000008000251a <label_0_1358>:
  asm volatile ("label_0_1638 :\n\t");   asm volatile ("label_0_1639 :\n\t"); asm volatile ("ADDW t6, zero, a1\n\t");
    8000251a:	2611                	addiw	a2,a2,4

000000008000251c <label_0_1359>:
  asm volatile ("label_0_1640 :\n\t"); asm volatile ("C.ADDIW a3, 0x13\n\t");
    8000251c:	026583bb          	mulw	t2,a1,t1

0000000080002520 <label_0_1360>:
  asm volatile ("label_0_1641 :\n\t"); asm volatile ("C.ADDW a2, a2\n\t");
    80002520:	9ebd                	addw	a3,a3,a5

0000000080002522 <label_0_1361>:
  asm volatile ("label_0_1642 :\n\t"); asm volatile ("ADDW s8, s8, a6\n\t");
    80002522:	01a085bb          	addw	a1,ra,s10

0000000080002526 <label_0_1362>:
  asm volatile ("label_0_1643 :\n\t"); asm volatile ("LD s3, -776 (s0)\n\t");
    80002526:	0079083b          	addw	a6,s2,t2

000000008000252a <label_0_1363>:
  asm volatile ("label_0_1644 :\n\t"); asm volatile ("C.ADDW a0, a5\n\t");
    8000252a:	033bdf3b          	divuw	t5,s7,s3

000000008000252e <label_0_1364>:
  asm volatile ("label_0_1645 :\n\t");   asm volatile ("label_0_1646 :\n\t");   asm volatile ("label_0_1647 :\n\t"); asm volatile ("C.ADDW a0, a4\n\t");
    8000252e:	9c91                	subw	s1,s1,a2

0000000080002530 <label_0_1365>:
  asm volatile ("label_0_1648 :\n\t"); asm volatile ("ADDIW a5, a6, 0x5\n\t");
    80002530:	02a0d3bb          	divuw	t2,ra,a0

0000000080002534 <label_0_1366>:
  asm volatile ("label_0_1649 :\n\t"); asm volatile ("LWU s2, -500 (s0)\n\t");
    80002534:	0335f2bb          	remuw	t0,a1,s3

0000000080002538 <label_0_1367>:
  asm volatile ("label_0_1650 :\n\t"); asm volatile ("ADDIW a7, s9, 0x1d\n\t");
    80002538:	24c1                	addiw	s1,s1,16

000000008000253a <label_0_1368>:
  asm volatile ("label_0_1651 :\n\t"); asm volatile ("ADDIW a0, s9, 0x1c\n\t");
    8000253a:	9c9d                	subw	s1,s1,a5

000000008000253c <label_0_1369>:
  asm volatile ("label_0_1652 :\n\t"); asm volatile ("LD zero, -108 (s0)\n\t");
    8000253c:	021dfcbb          	remuw	s9,s11,ra

0000000080002540 <label_0_1370>:
  asm volatile ("label_0_1653 :\n\t"); asm volatile ("C.ADDIW a3, 0x7\n\t");
    80002540:	03e4f8bb          	remuw	a7,s1,t5

0000000080002544 <label_0_1371>:
  asm volatile ("label_0_1654 :\n\t"); asm volatile ("MULW s4, t5, t2\n\t");
    80002544:	03bec93b          	divw	s2,t4,s11

0000000080002548 <label_0_1372>:
  asm volatile ("label_0_1655 :\n\t"); asm volatile ("C.ADDW a0, a3\n\t");
    80002548:	0038859b          	addiw	a1,a7,3

000000008000254c <label_0_1373>:
  asm volatile ("label_0_1656 :\n\t"); asm volatile ("REMW t1, a2, s1\n\t");
    8000254c:	02497cbb          	remuw	s9,s2,tp

0000000080002550 <label_0_1374>:
  asm volatile ("label_0_1657 :\n\t");   asm volatile ("label_0_1658 :\n\t");   asm volatile ("label_0_1659 :\n\t"); asm volatile ("DIVW zero, s8, t6\n\t");
    80002550:	02676e3b          	remw	t3,a4,t1

0000000080002554 <label_0_1375>:
  asm volatile ("label_0_1660 :\n\t"); asm volatile ("C.SUBW a3, a5\n\t");
    80002554:	0349ea3b          	remw	s4,s3,s4

0000000080002558 <label_0_1376>:
  asm volatile ("label_0_1661 :\n\t");   asm volatile ("label_0_1662 :\n\t"); asm volatile ("REMUW s7, s10, t3\n\t");
    80002558:	279d                	addiw	a5,a5,7

000000008000255a <label_0_1377>:
  asm volatile ("label_0_1663 :\n\t"); asm volatile ("LWU s1, -376 (s0)\n\t");
    8000255a:	034f6ebb          	remw	t4,t5,s4

000000008000255e <label_0_1378>:
