
rv32ui-ld.elf:	file format elf32-littleriscv

Disassembly of section .text.init:

80000000 <_start>:
80000000: 91 a0        	j	0x80000044 <reset_vector>
80000002: 01 00        	nop

80000004 <trap_vector>:
80000004: 73 2f 20 34  	csrr	t5, mcause
80000008: a1 4f        	li	t6, 8
8000000a: 63 04 ff 03  	beq	t5, t6, 0x80000032 <write_tohost>
8000000e: a5 4f        	li	t6, 9
80000010: 63 01 ff 03  	beq	t5, t6, 0x80000032 <write_tohost>
80000014: ad 4f        	li	t6, 11
80000016: 63 0e ff 01  	beq	t5, t6, 0x80000032 <write_tohost>
8000001a: 13 0f 00 00  	li	t5, 0
8000001e: 63 03 0f 00  	beqz	t5, 0x80000024 <trap_vector+0x20>
80000022: 02 8f        	jr	t5
80000024: 73 2f 20 34  	csrr	t5, mcause
80000028: 63 53 0f 00  	bgez	t5, 0x8000002e <other_exception>
8000002c: 09 a0        	j	0x8000002e <other_exception>

8000002e <other_exception>:
8000002e: 93 e1 91 53  	ori	gp, gp, 1337

80000032 <write_tohost>:
80000032: 17 1f 00 00  	auipc	t5, 1
80000036: 23 27 3f fc  	sw	gp, -50(t5)
8000003a: 17 1f 00 00  	auipc	t5, 1
8000003e: 23 25 0f fc  	sw	zero, -54(t5)
80000042: c5 bf        	j	0x80000032 <write_tohost>

80000044 <reset_vector>:
80000044: 81 40        	li	ra, 0
80000046: 01 41        	li	sp, 0
80000048: 81 41        	li	gp, 0
8000004a: 01 42        	li	tp, 0
8000004c: 81 42        	li	t0, 0
8000004e: 01 43        	li	t1, 0
80000050: 81 43        	li	t2, 0
80000052: 01 44        	li	s0, 0
80000054: 81 44        	li	s1, 0
80000056: 01 45        	li	a0, 0
80000058: 81 45        	li	a1, 0
8000005a: 01 46        	li	a2, 0
8000005c: 81 46        	li	a3, 0
8000005e: 01 47        	li	a4, 0
80000060: 81 47        	li	a5, 0
80000062: 01 48        	li	a6, 0
80000064: 81 48        	li	a7, 0
80000066: 01 49        	li	s2, 0
80000068: 81 49        	li	s3, 0
8000006a: 01 4a        	li	s4, 0
8000006c: 81 4a        	li	s5, 0
8000006e: 01 4b        	li	s6, 0
80000070: 81 4b        	li	s7, 0
80000072: 01 4c        	li	s8, 0
80000074: 81 4c        	li	s9, 0
80000076: 01 4d        	li	s10, 0
80000078: 81 4d        	li	s11, 0
8000007a: 01 4e        	li	t3, 0
8000007c: 81 4e        	li	t4, 0
8000007e: 01 4f        	li	t5, 0
80000080: 81 4f        	li	t6, 0
80000082: 73 25 40 f1  	csrr	a0, mhartid
80000086: 01 e1        	bnez	a0, 0x80000086 <reset_vector+0x42>
80000088: 97 02 00 00  	auipc	t0, 0
8000008c: 93 82 02 01  	addi	t0, t0, 16
80000090: 73 90 52 30  	csrw	mtvec, t0
80000094: 73 50 44 74  	csrwi	1860, 8
80000098: 97 02 00 00  	auipc	t0, 0
8000009c: 93 82 02 01  	addi	t0, t0, 16
800000a0: 73 90 52 30  	csrw	mtvec, t0
800000a4: 73 50 00 18  	csrwi	satp, 0
800000a8: 97 02 00 00  	auipc	t0, 0
800000ac: 93 82 c2 01  	addi	t0, t0, 28
800000b0: 73 90 52 30  	csrw	mtvec, t0
800000b4: b7 02 00 80  	lui	t0, 524288
800000b8: fd 12        	addi	t0, t0, -1
800000ba: 73 90 02 3b  	csrw	pmpaddr0, t0
800000be: fd 42        	li	t0, 31
800000c0: 73 90 02 3a  	csrw	pmpcfg0, t0
800000c4: 73 50 40 30  	csrwi	mie, 0
800000c8: 97 02 00 00  	auipc	t0, 0
800000cc: 93 82 42 01  	addi	t0, t0, 20
800000d0: 73 90 52 30  	csrw	mtvec, t0
800000d4: 73 50 20 30  	csrwi	medeleg, 0
800000d8: 73 50 30 30  	csrwi	mideleg, 0
800000dc: 81 41        	li	gp, 0
800000de: 97 02 00 00  	auipc	t0, 0
800000e2: 93 82 62 f2  	addi	t0, t0, -218
800000e6: 73 90 52 30  	csrw	mtvec, t0
800000ea: 05 45        	li	a0, 1
800000ec: 7e 05        	slli	a0, a0, 31
800000ee: 63 4a 05 00  	bltz	a0, 0x80000102 <reset_vector+0xbe>
800000f2: 0f 00 f0 0f  	fence
800000f6: 85 41        	li	gp, 1
800000f8: 93 08 d0 05  	li	a7, 93
800000fc: 01 45        	li	a0, 0
800000fe: 73 00 00 00  	ecall
80000102: 93 02 00 00  	li	t0, 0
80000106: 63 89 02 00  	beqz	t0, 0x80000118 <reset_vector+0xd4>
8000010a: 73 90 52 10  	csrw	stvec, t0
8000010e: ad 62        	lui	t0, 11
80000110: 93 82 92 10  	addi	t0, t0, 265
80000114: 73 90 22 30  	csrw	medeleg, t0
80000118: 73 50 00 30  	csrwi	mstatus, 0
8000011c: 97 02 00 00  	auipc	t0, 0
80000120: 93 82 42 01  	addi	t0, t0, 20
80000124: 73 90 12 34  	csrw	mepc, t0
80000128: 73 25 40 f1  	csrr	a0, mhartid
8000012c: 73 00 20 30  	mret

80000130 <test_4>:
80000130: 91 41        	li	gp, 4
80000132: b7 07 ff 00  	lui	a5, 4080
80000136: 93 87 f7 0f  	addi	a5, a5, 255
8000013a: 37 07 ff 0f  	lui	a4, 65520
8000013e: 13 07 f7 0f  	addi	a4, a4, 255
80000142: 17 24 00 00  	auipc	s0, 2
80000146: 13 04 e4 eb  	addi	s0, s0, -322
8000014a: 03 36 04 00  	<unknown>
8000014e: b7 03 ff 00  	lui	t2, 4080
80000152: 93 83 f3 0f  	addi	t2, t2, 255
80000156: 63 19 76 30  	bne	a2, t2, 0x80000468 <fail>
8000015a: b7 03 ff 0f  	lui	t2, 65520
8000015e: 93 83 f3 0f  	addi	t2, t2, 255
80000162: 63 93 76 30  	bne	a3, t2, 0x80000468 <fail>

80000166 <test_5>:
80000166: 95 41        	li	gp, 5
80000168: b7 07 ff 00  	lui	a5, 4080
8000016c: 93 87 f7 0f  	addi	a5, a5, 255
80000170: 37 07 ff 0f  	lui	a4, 65520
80000174: 13 07 f7 0f  	addi	a4, a4, 255
80000178: 17 24 00 00  	auipc	s0, 2
8000017c: 13 04 84 e8  	addi	s0, s0, -376
80000180: 03 35 04 00  	<unknown>
80000184: b7 03 ff 00  	lui	t2, 4080
80000188: 93 83 f3 0f  	addi	t2, t2, 255
8000018c: 63 1e 75 2c  	bne	a0, t2, 0x80000468 <fail>
80000190: b7 03 ff 0f  	lui	t2, 65520
80000194: 93 83 f3 0f  	addi	t2, t2, 255
80000198: 63 98 75 2c  	bne	a1, t2, 0x80000468 <fail>

8000019c <test_6>:
8000019c: 99 41        	li	gp, 6
8000019e: b7 07 ff 00  	lui	a5, 4080
800001a2: 93 87 f7 0f  	addi	a5, a5, 255
800001a6: 37 07 ff 0f  	lui	a4, 65520
800001aa: 13 07 f7 0f  	addi	a4, a4, 255
800001ae: 17 24 00 00  	auipc	s0, 2
800001b2: 13 04 24 e5  	addi	s0, s0, -430
800001b6: 03 38 04 00  	<unknown>
800001ba: b7 03 ff 00  	lui	t2, 4080
800001be: 93 83 f3 0f  	addi	t2, t2, 255
800001c2: 63 13 78 2a  	bne	a6, t2, 0x80000468 <fail>
800001c6: b7 03 ff 0f  	lui	t2, 65520
800001ca: 93 83 f3 0f  	addi	t2, t2, 255
800001ce: 63 9d 78 28  	bne	a7, t2, 0x80000468 <fail>

800001d2 <test_7>:
800001d2: 9d 41        	li	gp, 7
800001d4: b7 07 ff 00  	lui	a5, 4080
800001d8: 93 87 f7 0f  	addi	a5, a5, 255
800001dc: 37 07 ff 0f  	lui	a4, 65520
800001e0: 13 07 f7 0f  	addi	a4, a4, 255
800001e4: 17 24 00 00  	auipc	s0, 2
800001e8: 13 04 c4 e1  	addi	s0, s0, -484
800001ec: 03 39 04 00  	<unknown>
800001f0: b7 03 ff 00  	lui	t2, 4080
800001f4: 93 83 f3 0f  	addi	t2, t2, 255
800001f8: 63 18 79 26  	bne	s2, t2, 0x80000468 <fail>
800001fc: b7 03 ff 0f  	lui	t2, 65520
80000200: 93 83 f3 0f  	addi	t2, t2, 255
80000204: 63 92 79 26  	bne	s3, t2, 0x80000468 <fail>

80000208 <test_8>:
80000208: a1 41        	li	gp, 8
8000020a: b7 07 ff 00  	lui	a5, 4080
8000020e: 93 87 f7 0f  	addi	a5, a5, 255
80000212: 37 07 ff 0f  	lui	a4, 65520
80000216: 13 07 f7 0f  	addi	a4, a4, 255
8000021a: 17 24 00 00  	auipc	s0, 2
8000021e: 13 04 64 de  	addi	s0, s0, -538
80000222: 03 3a 04 00  	<unknown>
80000226: b7 03 ff 00  	lui	t2, 4080
8000022a: 93 83 f3 0f  	addi	t2, t2, 255
8000022e: 63 1d 7a 22  	bne	s4, t2, 0x80000468 <fail>
80000232: b7 03 ff 0f  	lui	t2, 65520
80000236: 93 83 f3 0f  	addi	t2, t2, 255
8000023a: 63 97 7a 22  	bne	s5, t2, 0x80000468 <fail>

8000023e <test_9>:
8000023e: a5 41        	li	gp, 9
80000240: b7 07 ff 00  	lui	a5, 4080
80000244: 93 87 f7 0f  	addi	a5, a5, 255
80000248: 37 07 ff 0f  	lui	a4, 65520
8000024c: 13 07 f7 0f  	addi	a4, a4, 255
80000250: 17 24 00 00  	auipc	s0, 2
80000254: 13 04 04 db  	addi	s0, s0, -592
80000258: 03 3b 04 00  	<unknown>
8000025c: b7 03 ff 00  	lui	t2, 4080
80000260: 93 83 f3 0f  	addi	t2, t2, 255
80000264: 63 12 7b 20  	bne	s6, t2, 0x80000468 <fail>
80000268: b7 03 ff 0f  	lui	t2, 65520
8000026c: 93 83 f3 0f  	addi	t2, t2, 255
80000270: 63 9c 7b 1e  	bne	s7, t2, 0x80000468 <fail>

80000274 <test_10>:
80000274: a9 41        	li	gp, 10
80000276: b7 07 ff 00  	lui	a5, 4080
8000027a: 93 87 f7 0f  	addi	a5, a5, 255
8000027e: 37 07 ff 0f  	lui	a4, 65520
80000282: 13 07 f7 0f  	addi	a4, a4, 255
80000286: 17 24 00 00  	auipc	s0, 2
8000028a: 13 04 a4 d7  	addi	s0, s0, -646
8000028e: 03 3c 04 00  	<unknown>
80000292: b7 03 ff 00  	lui	t2, 4080
80000296: 93 83 f3 0f  	addi	t2, t2, 255
8000029a: 63 17 7c 1c  	bne	s8, t2, 0x80000468 <fail>
8000029e: b7 03 ff 0f  	lui	t2, 65520
800002a2: 93 83 f3 0f  	addi	t2, t2, 255
800002a6: 63 91 7c 1c  	bne	s9, t2, 0x80000468 <fail>

800002aa <test_11>:
800002aa: ad 41        	li	gp, 11
800002ac: b7 07 ff 00  	lui	a5, 4080
800002b0: 93 87 f7 0f  	addi	a5, a5, 255
800002b4: 37 07 ff 0f  	lui	a4, 65520
800002b8: 13 07 f7 0f  	addi	a4, a4, 255
800002bc: 17 24 00 00  	auipc	s0, 2
800002c0: 13 04 44 d4  	addi	s0, s0, -700
800002c4: 03 3d 04 00  	<unknown>
800002c8: b7 03 ff 00  	lui	t2, 4080
800002cc: 93 83 f3 0f  	addi	t2, t2, 255
800002d0: 63 1c 7d 18  	bne	s10, t2, 0x80000468 <fail>
800002d4: b7 03 ff 0f  	lui	t2, 65520
800002d8: 93 83 f3 0f  	addi	t2, t2, 255
800002dc: 63 96 7d 18  	bne	s11, t2, 0x80000468 <fail>

800002e0 <test_12>:
800002e0: b1 41        	li	gp, 12
800002e2: b7 07 ff 00  	lui	a5, 4080
800002e6: 93 87 f7 0f  	addi	a5, a5, 255
800002ea: 37 07 ff 0f  	lui	a4, 65520
800002ee: 13 07 f7 0f  	addi	a4, a4, 255
800002f2: 17 24 00 00  	auipc	s0, 2
800002f6: 13 04 e4 d0  	addi	s0, s0, -754
800002fa: 03 3e 04 00  	<unknown>
800002fe: b7 03 ff 00  	lui	t2, 4080
80000302: 93 83 f3 0f  	addi	t2, t2, 255
80000306: 63 11 7e 16  	bne	t3, t2, 0x80000468 <fail>
8000030a: b7 03 ff 0f  	lui	t2, 65520
8000030e: 93 83 f3 0f  	addi	t2, t2, 255
80000312: 63 9b 7e 14  	bne	t4, t2, 0x80000468 <fail>

80000316 <test_13>:
80000316: b5 41        	li	gp, 13
80000318: b7 07 ff 00  	lui	a5, 4080
8000031c: 93 87 f7 0f  	addi	a5, a5, 255
80000320: 37 07 ff 0f  	lui	a4, 65520
80000324: 13 07 f7 0f  	addi	a4, a4, 255
80000328: 17 24 00 00  	auipc	s0, 2
8000032c: 13 04 84 cd  	addi	s0, s0, -808
80000330: 03 3f 04 00  	<unknown>
80000334: b7 03 ff 00  	lui	t2, 4080
80000338: 93 83 f3 0f  	addi	t2, t2, 255
8000033c: 63 16 7f 12  	bne	t5, t2, 0x80000468 <fail>
80000340: b7 03 ff 0f  	lui	t2, 65520
80000344: 93 83 f3 0f  	addi	t2, t2, 255
80000348: 63 90 7f 12  	bne	t6, t2, 0x80000468 <fail>

8000034c <test_14>:
8000034c: b9 41        	li	gp, 14
8000034e: b7 07 ff 00  	lui	a5, 4080
80000352: 93 87 f7 0f  	addi	a5, a5, 255
80000356: 37 07 ff 0f  	lui	a4, 65520
8000035a: 13 07 f7 0f  	addi	a4, a4, 255
8000035e: 17 24 00 00  	auipc	s0, 2
80000362: 13 04 24 ca  	addi	s0, s0, -862
80000366: 03 31 04 00  	<unknown>
8000036a: b7 03 ff 00  	lui	t2, 4080
8000036e: 93 83 f3 0f  	addi	t2, t2, 255
80000372: 63 1b 71 0e  	bne	sp, t2, 0x80000468 <fail>
80000376: b7 03 ff 0f  	lui	t2, 65520
8000037a: 93 83 f3 0f  	addi	t2, t2, 255
8000037e: 63 95 71 0e  	bne	gp, t2, 0x80000468 <fail>

80000382 <test_15>:
80000382: bd 41        	li	gp, 15
80000384: b7 07 ff 00  	lui	a5, 4080
80000388: 93 87 f7 0f  	addi	a5, a5, 255
8000038c: 37 07 ff 0f  	lui	a4, 65520
80000390: 13 07 f7 0f  	addi	a4, a4, 255
80000394: 17 24 00 00  	auipc	s0, 2
80000398: 13 04 c4 c6  	addi	s0, s0, -916
8000039c: 03 32 04 00  	<unknown>
800003a0: b7 03 ff 00  	lui	t2, 4080
800003a4: 93 83 f3 0f  	addi	t2, t2, 255
800003a8: 63 10 72 0c  	bne	tp, t2, 0x80000468 <fail>
800003ac: b7 03 ff 0f  	lui	t2, 65520
800003b0: 93 83 f3 0f  	addi	t2, t2, 255
800003b4: 63 9a 72 0a  	bne	t0, t2, 0x80000468 <fail>

800003b8 <test_16>:
800003b8: c1 41        	li	gp, 16
800003ba: b7 07 ff 00  	lui	a5, 4080
800003be: 93 87 f7 0f  	addi	a5, a5, 255
800003c2: 37 07 ff 0f  	lui	a4, 65520
800003c6: 13 07 f7 0f  	addi	a4, a4, 255
800003ca: 17 24 00 00  	auipc	s0, 2
800003ce: 13 04 64 c3  	addi	s0, s0, -970
800003d2: 03 33 04 00  	<unknown>
800003d6: b7 03 ff 00  	lui	t2, 4080
800003da: 93 83 f3 0f  	addi	t2, t2, 255
800003de: 63 15 73 08  	bne	t1, t2, 0x80000468 <fail>
800003e2: b7 03 ff 0f  	lui	t2, 65520
800003e6: 93 83 f3 0f  	addi	t2, t2, 255
800003ea: 63 9f 73 06  	bne	t2, t2, 0x80000468 <fail>

800003ee <test_17>:
800003ee: c5 41        	li	gp, 17
800003f0: b7 07 ff 00  	lui	a5, 4080
800003f4: 93 87 f7 0f  	addi	a5, a5, 255
800003f8: 37 07 ff 0f  	lui	a4, 65520
800003fc: 13 07 f7 0f  	addi	a4, a4, 255
80000400: 17 24 00 00  	auipc	s0, 2
80000404: 13 04 04 c0  	addi	s0, s0, -1024
80000408: 03 34 04 00  	<unknown>
8000040c: b7 03 ff 00  	lui	t2, 4080
80000410: 93 83 f3 0f  	addi	t2, t2, 255
80000414: 63 1a 74 04  	bne	s0, t2, 0x80000468 <fail>
80000418: b7 03 ff 0f  	lui	t2, 65520
8000041c: 93 83 f3 0f  	addi	t2, t2, 255
80000420: 63 94 74 04  	bne	s1, t2, 0x80000468 <fail>

80000424 <test_18>:
80000424: c9 41        	li	gp, 18
80000426: b7 07 ff 00  	lui	a5, 4080
8000042a: 93 87 f7 0f  	addi	a5, a5, 255
8000042e: 37 07 ff 0f  	lui	a4, 65520
80000432: 13 07 f7 0f  	addi	a4, a4, 255
80000436: 17 24 00 00  	auipc	s0, 2
8000043a: 13 04 a4 bc  	addi	s0, s0, -1078
8000043e: 03 37 04 00  	<unknown>
80000442: b7 03 ff 00  	lui	t2, 4080
80000446: 93 83 f3 0f  	addi	t2, t2, 255
8000044a: 63 1f 77 00  	bne	a4, t2, 0x80000468 <fail>
8000044e: b7 03 ff 0f  	lui	t2, 65520
80000452: 93 83 f3 0f  	addi	t2, t2, 255
80000456: 63 99 77 00  	bne	a5, t2, 0x80000468 <fail>
8000045a: 06 88        	mv	a6, ra
8000045c: 03 30 04 00  	<unknown>
80000460: 63 94 00 01  	bne	ra, a6, 0x80000468 <fail>
80000464: 63 1e 30 00  	bne	zero, gp, 0x80000480 <pass>

80000468 <fail>:
80000468: 0f 00 f0 0f  	fence
8000046c: 63 80 01 00  	beqz	gp, 0x8000046c <fail+0x4>
80000470: 86 01        	slli	gp, gp, 1
80000472: 93 e1 11 00  	ori	gp, gp, 1
80000476: 93 08 d0 05  	li	a7, 93
8000047a: 0e 85        	mv	a0, gp
8000047c: 73 00 00 00  	ecall

80000480 <pass>:
80000480: 0f 00 f0 0f  	fence
80000484: 85 41        	li	gp, 1
80000486: 93 08 d0 05  	li	a7, 93
8000048a: 01 45        	li	a0, 0
8000048c: 73 00 00 00  	ecall
80000490: 00 00        	unimp

Disassembly of section .data:

80002000 <tdat41>:
80002000: ff 00 ff 00  	<unknown>
80002004: ff 00 ff 0f  	<unknown>

80002008 <tdat42>:
80002008: 00 ff        	<unknown>
8000200a: 00 ff        	<unknown>
8000200c: 00 ff        	<unknown>
8000200e: 00 ff        	<unknown>

80002010 <tdat43>:
80002010: f0 0f        	addi	a2, sp, 988
80002012: f0 0f        	addi	a2, sp, 988
80002014: f0 0f        	addi	a2, sp, 988
80002016: f0 0f        	addi	a2, sp, 988

80002018 <tdat44>:
80002018: 0f f0 0f f0  	<unknown>
8000201c: 0f f0 0f f0  	<unknown>
