
rv64ui-p-slliw:     file format elf64-littleriscv


Disassembly of section .text.init:

0000000080000000 <_start>:
    80000000:	04c0006f          	j	8000004c <reset_vector>

0000000080000004 <trap_vector>:
    80000004:	34202f73          	csrr	t5,mcause
    80000008:	00800f93          	li	t6,8
    8000000c:	03ff0a63          	beq	t5,t6,80000040 <write_tohost>
    80000010:	00900f93          	li	t6,9
    80000014:	03ff0663          	beq	t5,t6,80000040 <write_tohost>
    80000018:	00b00f93          	li	t6,11
    8000001c:	03ff0263          	beq	t5,t6,80000040 <write_tohost>
    80000020:	80000f17          	auipc	t5,0x80000
    80000024:	fe0f0f13          	addi	t5,t5,-32 # 0 <_start-0x80000000>
    80000028:	000f0463          	beqz	t5,80000030 <trap_vector+0x2c>
    8000002c:	000f0067          	jr	t5
    80000030:	34202f73          	csrr	t5,mcause
    80000034:	000f5463          	bgez	t5,8000003c <handle_exception>
    80000038:	0040006f          	j	8000003c <handle_exception>

000000008000003c <handle_exception>:
    8000003c:	5391e193          	ori	gp,gp,1337

0000000080000040 <write_tohost>:
    80000040:	00001f17          	auipc	t5,0x1
    80000044:	fc3f2023          	sw	gp,-64(t5) # 80001000 <tohost>
    80000048:	ff9ff06f          	j	80000040 <write_tohost>

000000008000004c <reset_vector>:
    8000004c:	f1402573          	csrr	a0,mhartid
    80000050:	00051063          	bnez	a0,80000050 <reset_vector+0x4>
    80000054:	00000297          	auipc	t0,0x0
    80000058:	01028293          	addi	t0,t0,16 # 80000064 <reset_vector+0x18>
    8000005c:	30529073          	csrw	mtvec,t0
    80000060:	18005073          	csrwi	satp,0
    80000064:	00000297          	auipc	t0,0x0
    80000068:	01c28293          	addi	t0,t0,28 # 80000080 <reset_vector+0x34>
    8000006c:	30529073          	csrw	mtvec,t0
    80000070:	fff00293          	li	t0,-1
    80000074:	3b029073          	csrw	pmpaddr0,t0
    80000078:	01f00293          	li	t0,31
    8000007c:	3a029073          	csrw	pmpcfg0,t0
    80000080:	00000297          	auipc	t0,0x0
    80000084:	01828293          	addi	t0,t0,24 # 80000098 <reset_vector+0x4c>
    80000088:	30529073          	csrw	mtvec,t0
    8000008c:	30205073          	csrwi	medeleg,0
    80000090:	30305073          	csrwi	mideleg,0
    80000094:	30405073          	csrwi	mie,0
    80000098:	00000193          	li	gp,0
    8000009c:	00000297          	auipc	t0,0x0
    800000a0:	f6828293          	addi	t0,t0,-152 # 80000004 <trap_vector>
    800000a4:	30529073          	csrw	mtvec,t0
    800000a8:	00100513          	li	a0,1
    800000ac:	01f51513          	slli	a0,a0,0x1f
    800000b0:	00055863          	bgez	a0,800000c0 <reset_vector+0x74>
    800000b4:	0ff0000f          	fence
    800000b8:	00100193          	li	gp,1
    800000bc:	00000073          	ecall
    800000c0:	80000297          	auipc	t0,0x80000
    800000c4:	f4028293          	addi	t0,t0,-192 # 0 <_start-0x80000000>
    800000c8:	00028e63          	beqz	t0,800000e4 <reset_vector+0x98>
    800000cc:	10529073          	csrw	stvec,t0
    800000d0:	0000b2b7          	lui	t0,0xb
    800000d4:	1092829b          	addiw	t0,t0,265
    800000d8:	30229073          	csrw	medeleg,t0
    800000dc:	30202373          	csrr	t1,medeleg
    800000e0:	f4629ee3          	bne	t0,t1,8000003c <handle_exception>
    800000e4:	30005073          	csrwi	mstatus,0
    800000e8:	00000297          	auipc	t0,0x0
    800000ec:	01428293          	addi	t0,t0,20 # 800000fc <test_2>
    800000f0:	34129073          	csrw	mepc,t0
    800000f4:	f1402573          	csrr	a0,mhartid
    800000f8:	30200073          	mret

00000000800000fc <test_2>:
    800000fc:	00100093          	li	ra,1
    80000100:	00009f1b          	slliw	t5,ra,0x0
    80000104:	00100e93          	li	t4,1
    80000108:	00200193          	li	gp,2
    8000010c:	31df1263          	bne	t5,t4,80000410 <fail>

0000000080000110 <test_3>:
    80000110:	00100093          	li	ra,1
    80000114:	00109f1b          	slliw	t5,ra,0x1
    80000118:	00200e93          	li	t4,2
    8000011c:	00300193          	li	gp,3
    80000120:	2fdf1863          	bne	t5,t4,80000410 <fail>

0000000080000124 <test_4>:
    80000124:	00100093          	li	ra,1
    80000128:	00709f1b          	slliw	t5,ra,0x7
    8000012c:	08000e93          	li	t4,128
    80000130:	00400193          	li	gp,4
    80000134:	2ddf1e63          	bne	t5,t4,80000410 <fail>

0000000080000138 <test_5>:
    80000138:	00100093          	li	ra,1
    8000013c:	00e09f1b          	slliw	t5,ra,0xe
    80000140:	00004eb7          	lui	t4,0x4
    80000144:	00500193          	li	gp,5
    80000148:	2ddf1463          	bne	t5,t4,80000410 <fail>

000000008000014c <test_6>:
    8000014c:	00100093          	li	ra,1
    80000150:	01f09f1b          	slliw	t5,ra,0x1f
    80000154:	80000eb7          	lui	t4,0x80000
    80000158:	00600193          	li	gp,6
    8000015c:	2bdf1a63          	bne	t5,t4,80000410 <fail>

0000000080000160 <test_7>:
    80000160:	fff00093          	li	ra,-1
    80000164:	00009f1b          	slliw	t5,ra,0x0
    80000168:	fff00e93          	li	t4,-1
    8000016c:	00700193          	li	gp,7
    80000170:	2bdf1063          	bne	t5,t4,80000410 <fail>

0000000080000174 <test_8>:
    80000174:	fff00093          	li	ra,-1
    80000178:	00109f1b          	slliw	t5,ra,0x1
    8000017c:	ffe00e93          	li	t4,-2
    80000180:	00800193          	li	gp,8
    80000184:	29df1663          	bne	t5,t4,80000410 <fail>

0000000080000188 <test_9>:
    80000188:	fff00093          	li	ra,-1
    8000018c:	00709f1b          	slliw	t5,ra,0x7
    80000190:	f8000e93          	li	t4,-128
    80000194:	00900193          	li	gp,9
    80000198:	27df1c63          	bne	t5,t4,80000410 <fail>

000000008000019c <test_10>:
    8000019c:	fff00093          	li	ra,-1
    800001a0:	00e09f1b          	slliw	t5,ra,0xe
    800001a4:	ffffceb7          	lui	t4,0xffffc
    800001a8:	00a00193          	li	gp,10
    800001ac:	27df1263          	bne	t5,t4,80000410 <fail>

00000000800001b0 <test_11>:
    800001b0:	fff00093          	li	ra,-1
    800001b4:	01f09f1b          	slliw	t5,ra,0x1f
    800001b8:	80000eb7          	lui	t4,0x80000
    800001bc:	00b00193          	li	gp,11
    800001c0:	25df1863          	bne	t5,t4,80000410 <fail>

00000000800001c4 <test_12>:
    800001c4:	212120b7          	lui	ra,0x21212
    800001c8:	1210809b          	addiw	ra,ra,289
    800001cc:	00009f1b          	slliw	t5,ra,0x0
    800001d0:	21212eb7          	lui	t4,0x21212
    800001d4:	121e8e9b          	addiw	t4,t4,289
    800001d8:	00c00193          	li	gp,12
    800001dc:	23df1a63          	bne	t5,t4,80000410 <fail>

00000000800001e0 <test_13>:
    800001e0:	212120b7          	lui	ra,0x21212
    800001e4:	1210809b          	addiw	ra,ra,289
    800001e8:	00109f1b          	slliw	t5,ra,0x1
    800001ec:	42424eb7          	lui	t4,0x42424
    800001f0:	242e8e9b          	addiw	t4,t4,578
    800001f4:	00d00193          	li	gp,13
    800001f8:	21df1c63          	bne	t5,t4,80000410 <fail>

00000000800001fc <test_14>:
    800001fc:	212120b7          	lui	ra,0x21212
    80000200:	1210809b          	addiw	ra,ra,289
    80000204:	00709f1b          	slliw	t5,ra,0x7
    80000208:	90909eb7          	lui	t4,0x90909
    8000020c:	080e8e9b          	addiw	t4,t4,128
    80000210:	00e00193          	li	gp,14
    80000214:	1fdf1e63          	bne	t5,t4,80000410 <fail>

0000000080000218 <test_15>:
    80000218:	212120b7          	lui	ra,0x21212
    8000021c:	1210809b          	addiw	ra,ra,289
    80000220:	00e09f1b          	slliw	t5,ra,0xe
    80000224:	48484eb7          	lui	t4,0x48484
    80000228:	00f00193          	li	gp,15
    8000022c:	1fdf1263          	bne	t5,t4,80000410 <fail>

0000000080000230 <test_16>:
    80000230:	212120b7          	lui	ra,0x21212
    80000234:	1210809b          	addiw	ra,ra,289
    80000238:	01f09f1b          	slliw	t5,ra,0x1f
    8000023c:	80000eb7          	lui	t4,0x80000
    80000240:	01000193          	li	gp,16
    80000244:	1ddf1663          	bne	t5,t4,80000410 <fail>

0000000080000248 <test_44>:
    80000248:	fff120b7          	lui	ra,0xfff12
    8000024c:	3450809b          	addiw	ra,ra,837
    80000250:	00c09093          	slli	ra,ra,0xc
    80000254:	67808093          	addi	ra,ra,1656 # fffffffffff12678 <_end+0xffffffff7ff10678>
    80000258:	00009f1b          	slliw	t5,ra,0x0
    8000025c:	12345eb7          	lui	t4,0x12345
    80000260:	678e8e9b          	addiw	t4,t4,1656
    80000264:	02c00193          	li	gp,44
    80000268:	1bdf1463          	bne	t5,t4,80000410 <fail>

000000008000026c <test_45>:
    8000026c:	fff120b7          	lui	ra,0xfff12
    80000270:	3450809b          	addiw	ra,ra,837
    80000274:	00c09093          	slli	ra,ra,0xc
    80000278:	67808093          	addi	ra,ra,1656 # fffffffffff12678 <_end+0xffffffff7ff10678>
    8000027c:	00409f1b          	slliw	t5,ra,0x4
    80000280:	23456eb7          	lui	t4,0x23456
    80000284:	780e8e9b          	addiw	t4,t4,1920
    80000288:	02d00193          	li	gp,45
    8000028c:	19df1263          	bne	t5,t4,80000410 <fail>

0000000080000290 <test_46>:
    80000290:	000920b7          	lui	ra,0x92
    80000294:	3450809b          	addiw	ra,ra,837
    80000298:	00c09093          	slli	ra,ra,0xc
    8000029c:	67808093          	addi	ra,ra,1656 # 92678 <_start-0x7ff6d988>
    800002a0:	00009f1b          	slliw	t5,ra,0x0
    800002a4:	92345eb7          	lui	t4,0x92345
    800002a8:	678e8e9b          	addiw	t4,t4,1656
    800002ac:	02e00193          	li	gp,46
    800002b0:	17df1063          	bne	t5,t4,80000410 <fail>

00000000800002b4 <test_47>:
    800002b4:	000990b7          	lui	ra,0x99
    800002b8:	3450809b          	addiw	ra,ra,837
    800002bc:	00c09093          	slli	ra,ra,0xc
    800002c0:	67808093          	addi	ra,ra,1656 # 99678 <_start-0x7ff66988>
    800002c4:	00409f1b          	slliw	t5,ra,0x4
    800002c8:	93456eb7          	lui	t4,0x93456
    800002cc:	780e8e9b          	addiw	t4,t4,1920
    800002d0:	02f00193          	li	gp,47
    800002d4:	13df1e63          	bne	t5,t4,80000410 <fail>

00000000800002d8 <test_17>:
    800002d8:	00100093          	li	ra,1
    800002dc:	0070909b          	slliw	ra,ra,0x7
    800002e0:	08000e93          	li	t4,128
    800002e4:	01100193          	li	gp,17
    800002e8:	13d09463          	bne	ra,t4,80000410 <fail>

00000000800002ec <test_18>:
    800002ec:	00000213          	li	tp,0
    800002f0:	00100093          	li	ra,1
    800002f4:	00709f1b          	slliw	t5,ra,0x7
    800002f8:	000f0313          	mv	t1,t5
    800002fc:	00120213          	addi	tp,tp,1 # 1 <_start-0x7fffffff>
    80000300:	00200293          	li	t0,2
    80000304:	fe5216e3          	bne	tp,t0,800002f0 <test_18+0x4>
    80000308:	08000e93          	li	t4,128
    8000030c:	01200193          	li	gp,18
    80000310:	11d31063          	bne	t1,t4,80000410 <fail>

0000000080000314 <test_19>:
    80000314:	00000213          	li	tp,0
    80000318:	00100093          	li	ra,1
    8000031c:	00e09f1b          	slliw	t5,ra,0xe
    80000320:	00000013          	nop
    80000324:	000f0313          	mv	t1,t5
    80000328:	00120213          	addi	tp,tp,1 # 1 <_start-0x7fffffff>
    8000032c:	00200293          	li	t0,2
    80000330:	fe5214e3          	bne	tp,t0,80000318 <test_19+0x4>
    80000334:	00004eb7          	lui	t4,0x4
    80000338:	01300193          	li	gp,19
    8000033c:	0dd31a63          	bne	t1,t4,80000410 <fail>

0000000080000340 <test_20>:
    80000340:	00000213          	li	tp,0
    80000344:	00100093          	li	ra,1
    80000348:	01f09f1b          	slliw	t5,ra,0x1f
    8000034c:	00000013          	nop
    80000350:	00000013          	nop
    80000354:	000f0313          	mv	t1,t5
    80000358:	00120213          	addi	tp,tp,1 # 1 <_start-0x7fffffff>
    8000035c:	00200293          	li	t0,2
    80000360:	fe5212e3          	bne	tp,t0,80000344 <test_20+0x4>
    80000364:	80000eb7          	lui	t4,0x80000
    80000368:	01400193          	li	gp,20
    8000036c:	0bd31263          	bne	t1,t4,80000410 <fail>

0000000080000370 <test_21>:
    80000370:	00000213          	li	tp,0
    80000374:	00100093          	li	ra,1
    80000378:	00709f1b          	slliw	t5,ra,0x7
    8000037c:	00120213          	addi	tp,tp,1 # 1 <_start-0x7fffffff>
    80000380:	00200293          	li	t0,2
    80000384:	fe5218e3          	bne	tp,t0,80000374 <test_21+0x4>
    80000388:	08000e93          	li	t4,128
    8000038c:	01500193          	li	gp,21
    80000390:	09df1063          	bne	t5,t4,80000410 <fail>

0000000080000394 <test_22>:
    80000394:	00000213          	li	tp,0
    80000398:	00100093          	li	ra,1
    8000039c:	00000013          	nop
    800003a0:	00e09f1b          	slliw	t5,ra,0xe
    800003a4:	00120213          	addi	tp,tp,1 # 1 <_start-0x7fffffff>
    800003a8:	00200293          	li	t0,2
    800003ac:	fe5216e3          	bne	tp,t0,80000398 <test_22+0x4>
    800003b0:	00004eb7          	lui	t4,0x4
    800003b4:	01600193          	li	gp,22
    800003b8:	05df1c63          	bne	t5,t4,80000410 <fail>

00000000800003bc <test_23>:
    800003bc:	00000213          	li	tp,0
    800003c0:	00100093          	li	ra,1
    800003c4:	00000013          	nop
    800003c8:	00000013          	nop
    800003cc:	01f09f1b          	slliw	t5,ra,0x1f
    800003d0:	00120213          	addi	tp,tp,1 # 1 <_start-0x7fffffff>
    800003d4:	00200293          	li	t0,2
    800003d8:	fe5214e3          	bne	tp,t0,800003c0 <test_23+0x4>
    800003dc:	80000eb7          	lui	t4,0x80000
    800003e0:	01700193          	li	gp,23
    800003e4:	03df1663          	bne	t5,t4,80000410 <fail>

00000000800003e8 <test_24>:
    800003e8:	01f0109b          	slliw	ra,zero,0x1f
    800003ec:	00000e93          	li	t4,0
    800003f0:	01800193          	li	gp,24
    800003f4:	01d09e63          	bne	ra,t4,80000410 <fail>

00000000800003f8 <test_25>:
    800003f8:	01f00093          	li	ra,31
    800003fc:	01c0901b          	slliw	zero,ra,0x1c
    80000400:	00000e93          	li	t4,0
    80000404:	01900193          	li	gp,25
    80000408:	01d01463          	bne	zero,t4,80000410 <fail>
    8000040c:	00301c63          	bne	zero,gp,80000424 <pass>

0000000080000410 <fail>:
    80000410:	0ff0000f          	fence
    80000414:	00018063          	beqz	gp,80000414 <fail+0x4>
    80000418:	00119193          	slli	gp,gp,0x1
    8000041c:	0011e193          	ori	gp,gp,1
    80000420:	00000073          	ecall

0000000080000424 <pass>:
    80000424:	0ff0000f          	fence
    80000428:	00100193          	li	gp,1
    8000042c:	00000073          	ecall
    80000430:	c0001073          	unimp
    80000434:	0000                	unimp
    80000436:	0000                	unimp
    80000438:	0000                	unimp
    8000043a:	0000                	unimp
    8000043c:	0000                	unimp
    8000043e:	0000                	unimp
    80000440:	0000                	unimp
    80000442:	0000                	unimp
